(lp0
Vdance
p1
aVresults
p2
aVleads
p3
aVfollow
p4
aVhate
p5
aVaggression
p6
aVtweet
p7
aVfinally
p8
aVprogram
p9
aVretweets
p10
aVsmile
p11
aVpresentation
p12
aVghana
p13
aVchennai
p14
aVaffect
p15
aVblast
p16
aVentire
p17
aVschool
p18
aVevk
p19
aVmothers
p20
aVdie
p21
aVmarry
p22
aVbrother
p23
aVsolved
p24
aVporn8
p25
aVpruitt
p26
aVteam
p27
aVtrp
p28
aVsugaboy
p29
aVyall
p30
aVtalaga
p31
aVlifeatcapgemini
p32
aVdirect
p33
aVpast
p34
aVjournalistic
p35
aVblue
p36
aVbrexit
p37
aVclock
p38
aVgiving
p39
aVinternational
p40
aVbird
p41
aVtold
p42
aVedited
p43
aVpancakes
p44
aVhundreds
p45
aVhours
p46
aVexplore
p47
aVbaseball
p48
aVsexy
p49
aVwait
p50
aVcontroversy
p51
aVsmoke
p52
aVusually
p53
aVbob
p54
aVpunjab
p55
aVnba2kmyteam
p56
aVlove
p57
aVfamily
p58
aVilovebeingafrican
p59
aVprivate
p60
aVtrained
p61
aVgauri
p62
aVinstagram
p63
aVprove
p64
aVretweeted
p65
aVnegative
p66
aVydawmehaa
p67
aVleaks
p68
aVmsm
p69
aVcall
p70
aVaisq8chat
p71
aVangels
p72
aVclub
p73
aVtax
p74
aVwizkid
p75
aVvisual
p76
aVbaby
p77
aVproducing
p78
aVsiya
p79
aVshoot
p80
aVdey
p81
aVnba2k17
p82
aVjoin
p83
aVmo
p84
aVgetting
p85
aVprompto
p86
aVbelieves
p87
aVpresident
p88
aVtrump
p89
aVfigure
p90
aVawesome
p91
aVindia
p92
aVwhatsap
p93
aVcouncil
p94
aVpink
p95
aVhuge
p96
aVtravel
p97
aVsunday
p98
aVinstead
p99
aVordinary
p100
aVcomedy
p101
aVlah
p102
aVcharms
p103
aVwatch
p104
aVlab
p105
aVblood
p106
aVsoftball
p107
aVdate
p108
aVmah
p109
aVethics
p110
aVman
p111
aVremember
p112
aVmaybe
p113
aVsumeetha
p114
aVsi
p115
aVgreen
p116
aVultimate
p117
aVse
p118
aVcute
p119
aVoffice
p120
aVmove
p121
aVsoon
p122
aVtablets
p123
aVtendency
p124
aVspringday2ndwin
p125
aVsocialmedia
p126
aVhot
p127
aVwriting
p128
aVresort
p129
aVlt
p130
aVchoose
p131
aVspeech
p132
aVcriminal
p133
aVinefficiency
p134
aVjagah
p135
aVya
p136
aVsafe
p137
aVcnnleaks
p138
aVmcadoo
p139
aVday
p140
aVwont
p141
aVname
p142
aVjames
p143
aVfound
p144
aVkpk
p145
aVmean
p146
aVdoing
p147
aVbalochistan
p148
aVenergy
p149
aVallah
p150
aVeve
p151
aVtaught
p152
aVforgot
p153
aVgirl
p154
aVbay
p155
aVsaturday
p156
aVliving
p157
aVgod
p158
aVresearch
p159
aVincrease
p160
aVseriously
p161
aVmate
p162
aVbla
p163
aVnoctis
p164
aVfriday
p165
aVextraordinary
p166
aVparehas
p167
aVdetecting
p168
aVsoundcloud
p169
aVher
p170
aVcreated
p171
aVdays
p172
aVtempting
p173
aVpromotion
p174
aVmad
p175
aVorganize
p176
aVfeel
p177
aVarsenal
p178
aVrant
p179
aVspinning
p180
aVwikileaks
p181
aVgenerative
p182
aVmiss
p183
aVmillions
p184
aVstory
p185
aVbears
p186
aVgirls
p187
aVsubhanallah
p188
aVattack
p189
aVstatement
p190
aVcovenanti
p191
aVcatt
p192
aVwhite
p193
aVlisten
p194
aVnutrition
p195
aVescort
p196
aVfintan
p197
aVmegan
p198
aValan
p199
aVdraped
p200
aVoga
p201
aVaisq8
p202
aVking
p203
aVlmao
p204
aVshower
p205
aVfuture
p206
aVlover
p207
aVcounselor
p208
aVsab
p209
aVtonight
p210
aVraw
p211
aVrap
p212
aVchambers
p213
aVcousin
p214
aVapparently
p215
aVantis
p216
aVmio
p217
aVcontact
p218
aVexampl
p219
aVchairman
p220
aVunless
p221
aVmeasures
p222
aVsponsored
p223
aVclass
p224
aVgrave
p225
aVke
p226
aVjus
p227
aVkk
p228
aVmedical
p229
aVko
p230
aVdefinitely
p231
aVtech
p232
aVclean
p233
aVwounded
p234
aVsenior
p235
aVpainting
p236
aVlmaoo
p237
aVqueen
p238
aVmominaat
p239
aVpromote
p240
aVsativa
p241
aVknicks
p242
aVdick
p243
aVbigolive
p244
aVtape
p245
aVymi
p246
aVposted
p247
aVhope
p248
aVhis
p249
aVdj
p250
aVmein
p251
aVbeat
p252
aVfamiliar
p253
aVstop
p254
aVmission
p255
aVfeels
p256
aVcaloor
p257
aVhim
p258
aVreveal
p259
aVregarding
p260
aVbar
p261
aVshy
p262
aVdripped
p263
aVnaked
p264
aVstuff
p265
aVrelease
p266
aVwrote
p267
aVbtw
p268
aVset
p269
aVbts
p270
aVachieved
p271
aVviolated
p272
aVsex
p273
aVlion
p274
aVarc
p275
aVsec
p276
aVme7ba
p277
aVpisces
p278
aVmovie
p279
aVscrap
p280
aVplease
p281
aVyass
p282
aVcolwyn
p283
aVwon
p284
aVmylapore
p285
aVreading
p286
aVnotice
p287
aVrosie
p288
aVomg
p289
aVstyle
p290
aVclayton
p291
aVmarhoom
p292
aVtum
p293
aVarticle
p294
aVmaga
p295
aVjungkook
p296
aVapril
p297
aVforgotten
p298
aVjoe
p299
aVtuesday
p300
aVcommunity
p301
aVwalk
p302
aVpole
p303
aVagents
p304
aVlikes
p305
aVlearning
p306
aVnews
p307
aVcr
p308
aVvideos
p309
aVdue
p310
aVmikey
p311
aVliberals
p312
aVireland
p313
aVextreme
p314
aVkaha
p315
aVchild
p316
aVhaters
p317
aVmohammad
p318
aVleyk
p319
aVlook
p320
aVsolid
p321
aVaim
p322
aVbehavior
p323
aVfun
p324
aVmiddle
p325
aVim
p326
aVleaving
p327
aVeveryday
p328
aVnewsroom
p329
aVfollowers
p330
aVcopying
p331
aVunits
p332
aVthetwinks
p333
aVhang
p334
aVbullying
p335
aVtwinks
p336
aVbmcresults
p337
aVfucked
p338
aVafghan
p339
aVlonging
p340
aVfinesse
p341
aVpeach
p342
aVperson
p343
aVedge
p344
aVspend
p345
aVleft
p346
aVphoto
p347
aVmasons
p348
aVworld
p349
aVyes
p350
aVlake
p351
aVhay
p352
aVverse
p353
aVsave
p354
aVreal
p355
aVsrwrw
p356
aVsharpton
p357
aVincreased
p358
aVrules
p359
aVrebound
p360
aVgonna
p361
aVmon
p362
aVmom
p363
aVgovt
p364
aVusing
p365
aVpier
p366
aVapart
p367
aVdubai
p368
aVsadqay
p369
aVlost
p370
aVsindh
p371
aVpopular
p372
aVkyun
p373
aVtwinkhim
p374
aVgaining
p375
aVhonored
p376
aVmethods
p377
aVexposed
p378
aVfootage
p379
aVfake
p380
aVbauchi
p381
aVhacks
p382
aVdonald
p383
aVexamples
p384
aVdear
p385
aVgooglei
p386
aVfilming
p387
aVcnn
p388
aVpee
p389
aVripped
p390
aVba
p391
aVnight
p392
aVpost
p393
aVoh
p394
aVkhoya
p395
aVfavorite
p396
aVact
p397
aVwanna
p398
aVseeing
p399
aVconway
p400
aVresponds
p401
aVtrendd
p402
aVwan
p403
aVscrr
p404
aVlog
p405
aVprepare
p406
aVwaits
p407
aVpeople
p408
aVadversarial
p409
aVlol
p410
aVvirgin
p411
aVmomineen
p412
aVhouse
p413
aVhazrat
p414
aVtwitter
p415
aVfirdaus
p416
aVcollapsed
p417
aVboys
p418
aVgain
p419
aVline
p420
aVha
p421
aVtrue
p422
aVhe
p423
aVapne
p424
aVofficial
p425
aVagree
p426
aVshin
p427
aVchad
p428
aVindy
p429
aVam
p430
aVal
p431
aVannoying
p432
aVdying
p433
aVna
p434
aVnd
p435
aVwander
p436
aVtim
p437
aVbook
p438
aVnp
p439
aVpoor
p440
aVmodels
p441
aVcenter
p442
aVa1
p443
aVchance
p444
aVallowing
p445
aVproblemi
p446
aVkrpkab
p447
aVbrands
p448
aVweekend
p449
aVmeals
p450
aVdied
p451
aVtomor
p452
aVtime
p453
aVpush
p454
aVbalst
p455
aVhello
p456
a.