(lp0
Vdance
p1
aVresults
p2
aVleads
p3
aVfollow
p4
aVhate
p5
aVchildren
p6
aVaggression
p7
aVobamacretrthsqd
p8
aVtweet
p9
aVacting
p10
aVfinally
p11
aVprogram
p12
aVretweets
p13
aVsmile
p14
aVpresentation
p15
aVghana
p16
aVchennai
p17
aVaffect
p18
aVblast
p19
aVcondition
p20
aVsisterhoodofhiphop
p21
aVentire
p22
aVschool
p23
aVevk
p24
aVmothers
p25
aVdie
p26
aVmarry
p27
aVbrother
p28
aVrandom
p29
aVsolved
p30
aVporn8
p31
aVpruitt
p32
aVteam
p33
aVtrp
p34
aVsugaboy
p35
aVyall
p36
aVtalaga
p37
aVlifeatcapgemini
p38
aVdirect
p39
aVpast
p40
aVjournalistic
p41
aVquebec
p42
aVblue
p43
aVbrexit
p44
aVheavens
p45
aVclock
p46
aVgiving
p47
aVinternational
p48
aVbird
p49
aVtold
p50
aVedited
p51
aVgherbo
p52
aVexchange
p53
aVpancakes
p54
aVhundreds
p55
aVhours
p56
aVexplore
p57
aVbaseball
p58
aVsexy
p59
aVwait
p60
aVcontroversy
p61
aVsmoke
p62
aVusually
p63
aVbob
p64
aVmakes
p65
aVpunjab
p66
aVnba2kmyteam
p67
aVvia
p68
aVlove
p69
aVfamily
p70
aVilovebeingafrican
p71
aVprivate
p72
aVtrained
p73
aVgauri
p74
aVinstagram
p75
aVprove
p76
aVretweeted
p77
aVnegative
p78
aVydawmehaa
p79
aVleaks
p80
aVmsm
p81
aVcall
p82
aVwondering
p83
aVaisq8chat
p84
aVthru
p85
aVangels
p86
aVclub
p87
aVtax
p88
aVwizkid
p89
aVvisual
p90
aVbaby
p91
aVproducing
p92
aVtees
p93
aVsiya
p94
aVshoot
p95
aVdey
p96
aVnba2k17
p97
aVjoin
p98
aVmidterm
p99
aVmo
p100
aVgetting
p101
aVprompto
p102
aVbelieves
p103
aVheart
p104
aVpresident
p105
aVtrump
p106
aVfigure
p107
aVawesome
p108
aVindia
p109
aVvoces
p110
aVwhatsap
p111
aVwoman
p112
aVcouncil
p113
aVhit
p114
aVpink
p115
aVhuge
p116
aVtravel
p117
aVsunday
p118
aVent
p119
aVinstead
p120
aVordinary
p121
aVcomedy
p122
aVharmos
p123
aVlah
p124
aVcharms
p125
aVwatch
p126
aVlab
p127
aVblood
p128
aVsoftball
p129
aVdate
p130
aVmah
p131
aVethics
p132
aVguys
p133
aVman
p134
aVremember
p135
aVmaybe
p136
aVsumeetha
p137
aVsi
p138
aVgreen
p139
aVultimate
p140
aVse
p141
aVcute
p142
aVoffice
p143
aVmove
p144
aVsoon
p145
aVtablets
p146
aVgiavotella
p147
aVtendency
p148
aVspringday2ndwin
p149
aVsocialmedia
p150
aVhot
p151
aVwriting
p152
aVresort
p153
aVlt
p154
aVchoose
p155
aVspeech
p156
aVcriminal
p157
aVinefficiency
p158
aVdad
p159
aVjagah
p160
aVya
p161
aVsafe
p162
aVcnnleaks
p163
aVhalf
p164
aVfront
p165
aVmcadoo
p166
aVyu
p167
aVday
p168
aVwont
p169
aVname
p170
aVhook
p171
aVjames
p172
aVfound
p173
aVkpk
p174
aVmean
p175
aVcost
p176
aVdoing
p177
aVbalochistan
p178
aVenergy
p179
aVallah
p180
aVeve
p181
aVtaught
p182
aVforgot
p183
aVgirl
p184
aVbay
p185
aVsaturday
p186
aVliving
p187
aVgod
p188
aVresearch
p189
aVincrease
p190
aVseriously
p191
aVmate
p192
aVbla
p193
aVnoctis
p194
aVfriday
p195
aVextraordinary
p196
aVparehas
p197
aVdetecting
p198
aViheartawards
p199
aVsoundcloud
p200
aVher
p201
aVcreated
p202
aVdays
p203
aVrenew
p204
aVtempting
p205
aVpromotion
p206
aVmad
p207
aVorganize
p208
aVstatue
p209
aVfeel
p210
aVknocking
p211
aVarsenal
p212
aVyourself
p213
aVrant
p214
aVspinning
p215
aVwikileaks
p216
aVgenerative
p217
aVmiss
p218
aVmillions
p219
aViam
p220
aVstory
p221
aVbears
p222
aVgirls
p223
aVsubhanallah
p224
aVattack
p225
aVdumbass
p226
aVstatement
p227
aVcovenanti
p228
aVcatt
p229
aVwhite
p230
aVlisten
p231
aVnutrition
p232
aVescort
p233
aVfintan
p234
aVmegan
p235
aValan
p236
aVdraped
p237
aVbreakfast
p238
aVgrandchildren
p239
aVwasted
p240
aVoga
p241
aVaisq8
p242
aVking
p243
aVjobs
p244
aVlmao
p245
aVshower
p246
aVfuture
p247
aVlover
p248
aVcounselor
p249
aVsab
p250
aVspelled
p251
aVtonight
p252
aVraw
p253
aVrap
p254
aVchambers
p255
aVcousin
p256
aVapparently
p257
aVantis
p258
aVmio
p259
aVlil
p260
aVswitch
p261
aVcontact
p262
aVexampl
p263
aVchairman
p264
aVunless
p265
aVmeasures
p266
aVpaid
p267
aVvisitors
p268
aVsponsored
p269
aVclass
p270
aVgrave
p271
aVke
p272
aVjus
p273
aVkk
p274
aVmedical
p275
aVko
p276
aVdefinitely
p277
aVtech
p278
aVclean
p279
aVwounded
p280
aVsenior
p281
aVpainting
p282
aVlmaoo
p283
aVqueen
p284
aVmominaat
p285
aVnevada
p286
aVpromote
p287
aVsativa
p288
aVknowledge
p289
aVknicks
p290
aVdick
p291
aVbigolive
p292
aVtape
p293
aVpretty
p294
aVclobbered
p295
aVymi
p296
aVposted
p297
aVhope
p298
aVhis
p299
aVdj
p300
aVmein
p301
aVbeat
p302
aVfamiliar
p303
aVde
p304
aVstop
p305
aVmission
p306
aVrestocked
p307
aVfeels
p308
aVcaloor
p309
aVharmonizers
p310
aVhim
p311
aVreveal
p312
aVregarding
p313
aVcatcher
p314
aVbar
p315
aVshy
p316
aVdripped
p317
aVnaked
p318
aVstuff
p319
aVrelease
p320
aVwrote
p321
aVbtw
p322
aVset
p323
aVbts
p324
aVachieved
p325
aVviolated
p326
aVsex
p327
aVlion
p328
aVarc
p329
aVsec
p330
aVme7ba
p331
aVpisces
p332
aVsteadfast
p333
aVmovie
p334
aVscrap
p335
aVplease
p336
aVyass
p337
aVcolwyn
p338
aVwon
p339
aVmylapore
p340
aVreading
p341
aVknowing
p342
aVnotice
p343
aVrosie
p344
aVomg
p345
aVresponses
p346
aVstyle
p347
aVclayton
p348
aVmarhoom
p349
aVtum
p350
aVarticle
p351
aVmaga
p352
aVjungkook
p353
aVregret
p354
aVreceived
p355
aVapril
p356
aVforgotten
p357
aVcomes
p358
aVjoe
p359
aVinsurance
p360
aVmajesty
p361
aVcolor
p362
aVtuesday
p363
aVcommunity
p364
aVwalk
p365
aVpole
p366
aVagents
p367
aVlikes
p368
aVlearning
p369
aVnews
p370
aVcr
p371
aVvideos
p372
aVcreate
p373
aVdue
p374
aVmikey
p375
aVliberals
p376
aVireland
p377
aVextreme
p378
aVkaha
p379
aVlife
p380
aVdave
p381
aVunderstand
p382
aVchild
p383
aVinfestation
p384
aVhaters
p385
aVspirit
p386
aVmohammad
p387
aVleyk
p388
aVeast
p389
aVlook
p390
aVsolid
p391
aVbill
p392
aVaim
p393
aVbehavior
p394
aVfun
p395
aVsituation
p396
aVoriginator
p397
aVcons
p398
aVmiddle
p399
aVim
p400
aVsxtythre
p401
aVleaving
p402
aVeveryday
p403
aVnewsroom
p404
aVthreatens
p405
aVmorning
p406
aVfollowers
p407
aVcopying
p408
aVunits
p409
aVthetwinks
p410
aVhang
p411
aVbullying
p412
aVfeds
p413
aVtwinks
p414
aVbmcresults
p415
aVfucked
p416
aVafghan
p417
aVlonging
p418
aVfinesse
p419
aVpeach
p420
aVhonor
p421
aVperson
p422
aVedge
p423
aVspend
p424
aVleft
p425
aVphoto
p426
aVmasons
p427
aVdistracting
p428
aVhuman
p429
aVworld
p430
aVyes
p431
aVblow
p432
aVlake
p433
aVhay
p434
aVverse
p435
aVeasy
p436
aVsave
p437
aVreal
p438
aVbio
p439
aVsrwrw
p440
aVsharpton
p441
aVincreased
p442
aVrules
p443
aVrebound
p444
aVgonna
p445
aVmon
p446
aVmom
p447
aVgovt
p448
aVusing
p449
aVpier
p450
aVapart
p451
aVdubai
p452
aVsadqay
p453
aVlost
p454
aVsindh
p455
aVpopular
p456
aVkyun
p457
aVtwinkhim
p458
aVgaining
p459
aVhonored
p460
aVmethods
p461
aVexposed
p462
aVfootage
p463
aVfake
p464
aVbauchi
p465
aValive
p466
aVhacks
p467
aVdonald
p468
aVexamples
p469
aVdear
p470
aVgooglei
p471
aVfilming
p472
aVcnn
p473
aVpee
p474
aVripped
p475
aVba
p476
aVbc
p477
aVnight
p478
aVelectoral
p479
aVbp
p480
aVpost
p481
aVoh
p482
aVfreedom
p483
aVkhoya
p484
aVfavorite
p485
aVcheatingohisdoxzpk
p486
aVmarzie
p487
aVact
p488
aVwanna
p489
aVseeing
p490
aVown
p491
aVwhats
p492
aVconway
p493
aVresponds
p494
aVbestfanarmy
p495
aVtrendd
p496
aVwan
p497
aVscrr
p498
aVlog
p499
aVprepare
p500
aVwaits
p501
aVpeople
p502
aVadversarial
p503
aVlol
p504
aVvirgin
p505
aVmomineen
p506
aVhouse
p507
aVhazrat
p508
aVtwitter
p509
aVfirdaus
p510
aVatualizou
p511
aVcollapsed
p512
aVboys
p513
aVlink
p514
aVgain
p515
aVline
p516
aVha
p517
aVtrue
p518
aVhe
p519
aVapne
p520
aVofficial
p521
aVagree
p522
aVshin
p523
aVchad
p524
aVindy
p525
aVpenny
p526
aVam
p527
aVal
p528
aVpossessor
p529
aVsingle
p530
aVannoying
p531
aVnj
p532
aVdying
p533
aVna
p534
aVnd
p535
aVwander
p536
aVtim
p537
aVbook
p538
aVnp
p539
aVpoor
p540
aVcalculating
p541
aVmodels
p542
aVcenter
p543
aVa1
p544
aVchance
p545
aVallowing
p546
aVproblemi
p547
aVkrpkab
p548
aVbrands
p549
aVweekend
p550
aVmeals
p551
aVdied
p552
aVremix
p553
aVtweeting
p554
aVcurve
p555
aVtomor
p556
aVtime
p557
aVpush
p558
aVbalst
p559
aVleaked
p560
aVhello
p561
a.