ccopy_reg
_reconstructor
p0
(cnltk.classify.naivebayes
NaiveBayesClassifier
p1
c__builtin__
object
p2
Ntp3
Rp4
(dp5
S'_labels'
p6
(lp7
Vfemale
p8
aVmale
p9
asS'_feature_probdist'
p10
(dp11
(g8
Vcontains(found)
p12
tp13
g0
(cnltk.probability
ELEProbDist
p14
g2
Ntp15
Rp16
(dp17
S'_gamma'
p18
F0.5
sS'_N'
p19
I99
sS'_freqdist'
p20
g0
(cnltk.probability
FreqDist
p21
c__builtin__
dict
p22
(dp23
I00
I99
stp24
Rp25
(dp26
g19
I99
sS'_max_cache'
p27
NsS'_item_cache'
p28
NsS'_Nr_cache'
p29
NsbsS'_bins'
p30
I3
sS'_divisor'
p31
F100.5
sbs(g9
Vcontains(call)
p32
tp33
g0
(g14
g2
Ntp34
Rp35
(dp36
g18
F0.5
sg19
I71
sg20
g0
(g21
g22
(dp37
I00
I69
sI01
I2
stp38
Rp39
(dp40
g19
I71
sg27
Nsg28
Nsg29
Nsbsg30
I3
sg31
F72.5
sbs(g9
Vcontains(true)
p41
tp42
g0
(g14
g2
Ntp43
Rp44
(dp45
g18
F0.5
sg19
I71
sg20
g0
(g21
g22
(dp46
I00
I69
sI01
I2
stp47
Rp48
(dp49
g19
I71
sg27
Nsg28
Nsg29
Nsbsg30
I3
sg31
F72.5
sbs(g9
Vcontains(filming)
p50
tp51
g0
(g14
g2
Ntp52
Rp53
(dp54
g18
F0.5
sg19
I71
sg20
g0
(g21
g22
(dp55
I00
I71
stp56
Rp57
(dp58
g19
I71
sg27
Nsg28
Nsg29
Nsbsg30
I3
sg31
F72.5
sbs(g9
Vcontains(told)
p59
tp60
g0
(g14
g2
Ntp61
Rp62
(dp63
g18
F0.5
sg19
I71
sg20
g0
(g21
g22
(dp64
I00
I70
sI01
I1
stp65
Rp66
(dp67
g19
I71
sg27
Nsg28
Nsg29
Nsbsg30
I3
sg31
F72.5
sbs(g8
Vcontains(socialmedia)
p68
tp69
g0
(g14
g2
Ntp70
Rp71
(dp72
g18
F0.5
sg19
I99
sg20
g0
(g21
g22
(dp73
I00
I99
stp74
Rp75
(dp76
g19
I99
sg27
Nsg28
Nsg29
Nsbsg30
I3
sg31
F100.5
sbs(g9
Vcontains(dey)
p77
tp78
g0
(g14
g2
Ntp79
Rp80
(dp81
g18
F0.5
sg19
I71
sg20
g0
(g21
g22
(dp82
I00
I71
stp83
Rp84
(dp85
g19
I71
sg27
Nsg28
Nsg29
Nsbsg30
I3
sg31
F72.5
sbs(g9
Vcontains(masons)
p86
tp87
g0
(g14
g2
Ntp88
Rp89
(dp90
g18
F0.5
sg19
I71
sg20
g0
(g21
g22
(dp91
I00
I70
sI01
I1
stp92
Rp93
(dp94
g19
I71
sg27
Nsg28
Nsg29
Nsbsg30
I3
sg31
F72.5
sbs(g8
Vcontains(retweets)
p95
tp96
g0
(g14
g2
Ntp97
Rp98
(dp99
g18
F0.5
sg19
I99
sg20
g0
(g21
g22
(dp100
I00
I99
stp101
Rp102
(dp103
g19
I99
sg27
Nsg28
Nsg29
Nsbsg30
I3
sg31
F100.5
sbs(g8
Vcontains(people)
p104
tp105
g0
(g14
g2
Ntp106
Rp107
(dp108
g18
F0.5
sg19
I99
sg20
g0
(g21
g22
(dp109
I00
I97
sI01
I2
stp110
Rp111
(dp112
g19
I99
sg27
Nsg28
Nsg29
Nsbsg30
I3
sg31
F100.5
sbs(g8
Vcontains(scrr)
p113
tp114
g0
(g14
g2
Ntp115
Rp116
(dp117
g18
F0.5
sg19
I99
sg20
g0
(g21
g22
(dp118
I00
I98
sI01
I1
stp119
Rp120
(dp121
g19
I99
sg27
Nsg28
Nsg29
Nsbsg30
I3
sg31
F100.5
sbs(g9
Vcontains(feel)
p122
tp123
g0
(g14
g2
Ntp124
Rp125
(dp126
g18
F0.5
sg19
I71
sg20
g0
(g21
g22
(dp127
I00
I70
sI01
I1
stp128
Rp129
(dp130
g19
I71
sg27
Nsg28
Nsg29
Nsbsg30
I3
sg31
F72.5
sbs(g8
Vcontains(smoke)
p131
tp132
g0
(g14
g2
Ntp133
Rp134
(dp135
g18
F0.5
sg19
I99
sg20
g0
(g21
g22
(dp136
I00
I97
sI01
I2
stp137
Rp138
(dp139
g19
I99
sg27
Nsg28
Nsg29
Nsbsg30
I3
sg31
F100.5
sbs(g8
Vcontains(look)
p140
tp141
g0
(g14
g2
Ntp142
Rp143
(dp144
g18
F0.5
sg19
I99
sg20
g0
(g21
g22
(dp145
I00
I98
sI01
I1
stp146
Rp147
(dp148
g19
I99
sg27
Nsg28
Nsg29
Nsbsg30
I3
sg31
F100.5
sbs(g8
Vcontains(tax)
p149
tp150
g0
(g14
g2
Ntp151
Rp152
(dp153
g18
F0.5
sg19
I99
sg20
g0
(g21
g22
(dp154
I00
I99
stp155
Rp156
(dp157
g19
I99
sg27
Nsg28
Nsg29
Nsbsg30
I3
sg31
F100.5
sbs(g8
Vcontains(angels)
p158
tp159
g0
(g14
g2
Ntp160
Rp161
(dp162
g18
F0.5
sg19
I99
sg20
g0
(g21
g22
(dp163
I00
I98
sI01
I1
stp164
Rp165
(dp166
g19
I99
sg27
Nsg28
Nsg29
Nsbsg30
I3
sg31
F100.5
sbs(g9
Vcontains(reveal)
p167
tp168
g0
(g14
g2
Ntp169
Rp170
(dp171
g18
F0.5
sg19
I71
sg20
g0
(g21
g22
(dp172
I00
I71
stp173
Rp174
(dp175
g19
I71
sg27
Nsg28
Nsg29
Nsbsg30
I3
sg31
F72.5
sbs(g9
Vcontains(softball)
p176
tp177
g0
(g14
g2
Ntp178
Rp179
(dp180
g18
F0.5
sg19
I71
sg20
g0
(g21
g22
(dp181
I00
I71
stp182
Rp183
(dp184
g19
I71
sg27
Nsg28
Nsg29
Nsbsg30
I3
sg31
F72.5
sbs(g8
Vcontains(whatsap)
p185
tp186
g0
(g14
g2
Ntp187
Rp188
(dp189
g18
F0.5
sg19
I99
sg20
g0
(g21
g22
(dp190
I00
I98
sI01
I1
stp191
Rp192
(dp193
g19
I99
sg27
Nsg28
Nsg29
Nsbsg30
I3
sg31
F100.5
sbs(g8
Vcontains(april)
p194
tp195
g0
(g14
g2
Ntp196
Rp197
(dp198
g18
F0.5
sg19
I99
sg20
g0
(g21
g22
(dp199
I00
I96
sI01
I3
stp200
Rp201
(dp202
g19
I99
sg27
Nsg28
Nsg29
Nsbsg30
I3
sg31
F100.5
sbs(g9
Vcontains(edited)
p203
tp204
g0
(g14
g2
Ntp205
Rp206
(dp207
g18
F0.5
sg19
I71
sg20
g0
(g21
g22
(dp208
I00
I69
sI01
I2
stp209
Rp210
(dp211
g19
I71
sg27
Nsg28
Nsg29
Nsbsg30
I3
sg31
F72.5
sbs(g9
Vcontains(evk)
p212
tp213
g0
(g14
g2
Ntp214
Rp215
(dp216
g18
F0.5
sg19
I71
sg20
g0
(g21
g22
(dp217
I00
I70
sI01
I1
stp218
Rp219
(dp220
g19
I71
sg27
Nsg28
Nsg29
Nsbsg30
I3
sg31
F72.5
sbs(g9
Vcontains(house)
p221
tp222
g0
(g14
g2
Ntp223
Rp224
(dp225
g18
F0.5
sg19
I71
sg20
g0
(g21
g22
(dp226
I00
I70
sI01
I1
stp227
Rp228
(dp229
g19
I71
sg27
Nsg28
Nsg29
Nsbsg30
I3
sg31
F72.5
sbs(g9
Vcontains(dj)
p230
tp231
g0
(g14
g2
Ntp232
Rp233
(dp234
g18
F0.5
sg19
I71
sg20
g0
(g21
g22
(dp235
I00
I70
sI01
I1
stp236
Rp237
(dp238
g19
I71
sg27
Nsg28
Nsg29
Nsbsg30
I3
sg31
F72.5
sbs(g9
Vcontains(sponsored)
p239
tp240
g0
(g14
g2
Ntp241
Rp242
(dp243
g18
F0.5
sg19
I71
sg20
g0
(g21
g22
(dp244
I00
I70
sI01
I1
stp245
Rp246
(dp247
g19
I71
sg27
Nsg28
Nsg29
Nsbsg30
I3
sg31
F72.5
sbs(g9
Vcontains(leaks)
p248
tp249
g0
(g14
g2
Ntp250
Rp251
(dp252
g18
F0.5
sg19
I71
sg20
g0
(g21
g22
(dp253
I00
I71
stp254
Rp255
(dp256
g19
I71
sg27
Nsg28
Nsg29
Nsbsg30
I3
sg31
F72.5
sbs(g9
Vcontains(seriously)
p257
tp258
g0
(g14
g2
Ntp259
Rp260
(dp261
g18
F0.5
sg19
I71
sg20
g0
(g21
g22
(dp262
I00
I71
stp263
Rp264
(dp265
g19
I71
sg27
Nsg28
Nsg29
Nsbsg30
I3
sg31
F72.5
sbs(g8
Vcontains(shin)
p266
tp267
g0
(g14
g2
Ntp268
Rp269
(dp270
g18
F0.5
sg19
I99
sg20
g0
(g21
g22
(dp271
I00
I97
sI01
I2
stp272
Rp273
(dp274
g19
I99
sg27
Nsg28
Nsg29
Nsbsg30
I3
sg31
F100.5
sbs(g8
Vcontains(sativa)
p275
tp276
g0
(g14
g2
Ntp277
Rp278
(dp279
g18
F0.5
sg19
I99
sg20
g0
(g21
g22
(dp280
I00
I99
stp281
Rp282
(dp283
g19
I99
sg27
Nsg28
Nsg29
Nsbsg30
I3
sg31
F100.5
sbs(g8
Vcontains(inefficiency)
p284
tp285
g0
(g14
g2
Ntp286
Rp287
(dp288
g18
F0.5
sg19
I99
sg20
g0
(g21
g22
(dp289
I00
I99
stp290
Rp291
(dp292
g19
I99
sg27
Nsg28
Nsg29
Nsbsg30
I3
sg31
F100.5
sbs(g9
Vcontains(ydawmehaa)
p293
tp294
g0
(g14
g2
Ntp295
Rp296
(dp297
g18
F0.5
sg19
I71
sg20
g0
(g21
g22
(dp298
I00
I70
sI01
I1
stp299
Rp300
(dp301
g19
I71
sg27
Nsg28
Nsg29
Nsbsg30
I3
sg31
F72.5
sbs(g8
Vcontains(edge)
p302
tp303
g0
(g14
g2
Ntp304
Rp305
(dp306
g18
F0.5
sg19
I99
sg20
g0
(g21
g22
(dp307
I00
I74
sI01
I25
stp308
Rp309
(dp310
g19
I99
sg27
Nsg28
Nsg29
Nsbsg30
I3
sg31
F100.5
sbs(g9
Vcontains(spinning)
p311
tp312
g0
(g14
g2
Ntp313
Rp314
(dp315
g18
F0.5
sg19
I71
sg20
g0
(g21
g22
(dp316
I00
I71
stp317
Rp318
(dp319
g19
I71
sg27
Nsg28
Nsg29
Nsbsg30
I3
sg31
F72.5
sbs(g8
Vcontains(sunday)
p320
tp321
g0
(g14
g2
Ntp322
Rp323
(dp324
g18
F0.5
sg19
I99
sg20
g0
(g21
g22
(dp325
I00
I99
stp326
Rp327
(dp328
g19
I99
sg27
Nsg28
Nsg29
Nsbsg30
I3
sg31
F100.5
sbs(g8
Vcontains(trained)
p329
tp330
g0
(g14
g2
Ntp331
Rp332
(dp333
g18
F0.5
sg19
I99
sg20
g0
(g21
g22
(dp334
I00
I99
stp335
Rp336
(dp337
g19
I99
sg27
Nsg28
Nsg29
Nsbsg30
I3
sg31
F100.5
sbs(g8
Vcontains(honored)
p338
tp339
g0
(g14
g2
Ntp340
Rp341
(dp342
g18
F0.5
sg19
I99
sg20
g0
(g21
g22
(dp343
I00
I98
sI01
I1
stp344
Rp345
(dp346
g19
I99
sg27
Nsg28
Nsg29
Nsbsg30
I3
sg31
F100.5
sbs(g9
Vcontains(ghana)
p347
tp348
g0
(g14
g2
Ntp349
Rp350
(dp351
g18
F0.5
sg19
I71
sg20
g0
(g21
g22
(dp352
I00
I71
stp353
Rp354
(dp355
g19
I71
sg27
Nsg28
Nsg29
Nsbsg30
I3
sg31
F72.5
sbs(g8
Vcontains(criminal)
p356
tp357
g0
(g14
g2
Ntp358
Rp359
(dp360
g18
F0.5
sg19
I99
sg20
g0
(g21
g22
(dp361
I00
I98
sI01
I1
stp362
Rp363
(dp364
g19
I99
sg27
Nsg28
Nsg29
Nsbsg30
I3
sg31
F100.5
sbs(g9
Vcontains(aim)
p365
tp366
g0
(g14
g2
Ntp367
Rp368
(dp369
g18
F0.5
sg19
I71
sg20
g0
(g21
g22
(dp370
I00
I71
stp371
Rp372
(dp373
g19
I71
sg27
Nsg28
Nsg29
Nsbsg30
I3
sg31
F72.5
sbs(g8
Vcontains(controversy)
p374
tp375
g0
(g14
g2
Ntp376
Rp377
(dp378
g18
F0.5
sg19
I99
sg20
g0
(g21
g22
(dp379
I00
I97
sI01
I2
stp380
Rp381
(dp382
g19
I99
sg27
Nsg28
Nsg29
Nsbsg30
I3
sg31
F100.5
sbs(g9
Vcontains(his)
p383
tp384
g0
(g14
g2
Ntp385
Rp386
(dp387
g18
F0.5
sg19
I71
sg20
g0
(g21
g22
(dp388
I00
I70
sI01
I1
stp389
Rp390
(dp391
g19
I71
sg27
Nsg28
Nsg29
Nsbsg30
I3
sg31
F72.5
sbs(g8
Vcontains(cnnleaks)
p392
tp393
g0
(g14
g2
Ntp394
Rp395
(dp396
g18
F0.5
sg19
I99
sg20
g0
(g21
g22
(dp397
I00
I95
sI01
I4
stp398
Rp399
(dp400
g19
I99
sg27
Nsg28
Nsg29
Nsbsg30
I3
sg31
F100.5
sbs(g8
Vcontains(sharpton)
p401
tp402
g0
(g14
g2
Ntp403
Rp404
(dp405
g18
F0.5
sg19
I99
sg20
g0
(g21
g22
(dp406
I00
I99
stp407
Rp408
(dp409
g19
I99
sg27
Nsg28
Nsg29
Nsbsg30
I3
sg31
F100.5
sbs(g9
Vcontains(man)
p410
tp411
g0
(g14
g2
Ntp412
Rp413
(dp414
g18
F0.5
sg19
I71
sg20
g0
(g21
g22
(dp415
I00
I70
sI01
I1
stp416
Rp417
(dp418
g19
I71
sg27
Nsg28
Nsg29
Nsbsg30
I3
sg31
F72.5
sbs(g8
Vcontains(push)
p419
tp420
g0
(g14
g2
Ntp421
Rp422
(dp423
g18
F0.5
sg19
I99
sg20
g0
(g21
g22
(dp424
I00
I97
sI01
I2
stp425
Rp426
(dp427
g19
I99
sg27
Nsg28
Nsg29
Nsbsg30
I3
sg31
F100.5
sbs(g9
Vcontains(mio)
p428
tp429
g0
(g14
g2
Ntp430
Rp431
(dp432
g18
F0.5
sg19
I71
sg20
g0
(g21
g22
(dp433
I00
I70
sI01
I1
stp434
Rp435
(dp436
g19
I71
sg27
Nsg28
Nsg29
Nsbsg30
I3
sg31
F72.5
sbs(g8
Vcontains(instead)
p437
tp438
g0
(g14
g2
Ntp439
Rp440
(dp441
g18
F0.5
sg19
I99
sg20
g0
(g21
g22
(dp442
I00
I98
sI01
I1
stp443
Rp444
(dp445
g19
I99
sg27
Nsg28
Nsg29
Nsbsg30
I3
sg31
F100.5
sbs(g9
Vcontains(chance)
p446
tp447
g0
(g14
g2
Ntp448
Rp449
(dp450
g18
F0.5
sg19
I71
sg20
g0
(g21
g22
(dp451
I00
I70
sI01
I1
stp452
Rp453
(dp454
g19
I71
sg27
Nsg28
Nsg29
Nsbsg30
I3
sg31
F72.5
sbs(g8
Vcontains(move)
p455
tp456
g0
(g14
g2
Ntp457
Rp458
(dp459
g18
F0.5
sg19
I99
sg20
g0
(g21
g22
(dp460
I00
I99
stp461
Rp462
(dp463
g19
I99
sg27
Nsg28
Nsg29
Nsbsg30
I3
sg31
F100.5
sbs(g9
Vcontains(wizkid)
p464
tp465
g0
(g14
g2
Ntp466
Rp467
(dp468
g18
F0.5
sg19
I71
sg20
g0
(g21
g22
(dp469
I00
I70
sI01
I1
stp470
Rp471
(dp472
g19
I71
sg27
Nsg28
Nsg29
Nsbsg30
I3
sg31
F72.5
sbs(g9
Vcontains(ke)
p473
tp474
g0
(g14
g2
Ntp475
Rp476
(dp477
g18
F0.5
sg19
I71
sg20
g0
(g21
g22
(dp478
I00
I71
stp479
Rp480
(dp481
g19
I71
sg27
Nsg28
Nsg29
Nsbsg30
I3
sg31
F72.5
sbs(g9
Vcontains(apparently)
p482
tp483
g0
(g14
g2
Ntp484
Rp485
(dp486
g18
F0.5
sg19
I71
sg20
g0
(g21
g22
(dp487
I00
I71
stp488
Rp489
(dp490
g19
I71
sg27
Nsg28
Nsg29
Nsbsg30
I3
sg31
F72.5
sbs(g8
Vcontains(sec)
p491
tp492
g0
(g14
g2
Ntp493
Rp494
(dp495
g18
F0.5
sg19
I99
sg20
g0
(g21
g22
(dp496
I00
I99
stp497
Rp498
(dp499
g19
I99
sg27
Nsg28
Nsg29
Nsbsg30
I3
sg31
F100.5
sbs(g8
Vcontains(yall)
p500
tp501
g0
(g14
g2
Ntp502
Rp503
(dp504
g18
F0.5
sg19
I99
sg20
g0
(g21
g22
(dp505
I00
I97
sI01
I2
stp506
Rp507
(dp508
g19
I99
sg27
Nsg28
Nsg29
Nsbsg30
I3
sg31
F100.5
sbs(g8
Vcontains(lt)
p509
tp510
g0
(g14
g2
Ntp511
Rp512
(dp513
g18
F0.5
sg19
I99
sg20
g0
(g21
g22
(dp514
I00
I98
sI01
I1
stp515
Rp516
(dp517
g19
I99
sg27
Nsg28
Nsg29
Nsbsg30
I3
sg31
F100.5
sbs(g9
Vcontains(article)
p518
tp519
g0
(g14
g2
Ntp520
Rp521
(dp522
g18
F0.5
sg19
I71
sg20
g0
(g21
g22
(dp523
I00
I70
sI01
I1
stp524
Rp525
(dp526
g19
I71
sg27
Nsg28
Nsg29
Nsbsg30
I3
sg31
F72.5
sbs(g9
Vcontains(international)
p527
tp528
g0
(g14
g2
Ntp529
Rp530
(dp531
g18
F0.5
sg19
I71
sg20
g0
(g21
g22
(dp532
I00
I70
sI01
I1
stp533
Rp534
(dp535
g19
I71
sg27
Nsg28
Nsg29
Nsbsg30
I3
sg31
F72.5
sbs(g8
Vcontains(me7ba)
p536
tp537
g0
(g14
g2
Ntp538
Rp539
(dp540
g18
F0.5
sg19
I99
sg20
g0
(g21
g22
(dp541
I00
I99
stp542
Rp543
(dp544
g19
I99
sg27
Nsg28
Nsg29
Nsbsg30
I3
sg31
F100.5
sbs(g8
Vcontains(ordinary)
p545
tp546
g0
(g14
g2
Ntp547
Rp548
(dp549
g18
F0.5
sg19
I99
sg20
g0
(g21
g22
(dp550
I00
I98
sI01
I1
stp551
Rp552
(dp553
g19
I99
sg27
Nsg28
Nsg29
Nsbsg30
I3
sg31
F100.5
sbs(g9
Vcontains(am)
p554
tp555
g0
(g14
g2
Ntp556
Rp557
(dp558
g18
F0.5
sg19
I71
sg20
g0
(g21
g22
(dp559
I00
I71
stp560
Rp561
(dp562
g19
I71
sg27
Nsg28
Nsg29
Nsbsg30
I3
sg31
F72.5
sbs(g9
Vcontains(verse)
p563
tp564
g0
(g14
g2
Ntp565
Rp566
(dp567
g18
F0.5
sg19
I71
sg20
g0
(g21
g22
(dp568
I00
I71
stp569
Rp570
(dp571
g19
I71
sg27
Nsg28
Nsg29
Nsbsg30
I3
sg31
F72.5
sbs(g9
Vcontains(green)
p572
tp573
g0
(g14
g2
Ntp574
Rp575
(dp576
g18
F0.5
sg19
I71
sg20
g0
(g21
g22
(dp577
I00
I71
stp578
Rp579
(dp580
g19
I71
sg27
Nsg28
Nsg29
Nsbsg30
I3
sg31
F72.5
sbs(g9
Vcontains(balst)
p581
tp582
g0
(g14
g2
Ntp583
Rp584
(dp585
g18
F0.5
sg19
I71
sg20
g0
(g21
g22
(dp586
I00
I70
sI01
I1
stp587
Rp588
(dp589
g19
I71
sg27
Nsg28
Nsg29
Nsbsg30
I3
sg31
F72.5
sbs(g9
Vcontains(safe)
p590
tp591
g0
(g14
g2
Ntp592
Rp593
(dp594
g18
F0.5
sg19
I71
sg20
g0
(g21
g22
(dp595
I00
I70
sI01
I1
stp596
Rp597
(dp598
g19
I71
sg27
Nsg28
Nsg29
Nsbsg30
I3
sg31
F72.5
sbs(g9
Vcontains(friday)
p599
tp600
g0
(g14
g2
Ntp601
Rp602
(dp603
g18
F0.5
sg19
I71
sg20
g0
(g21
g22
(dp604
I00
I70
sI01
I1
stp605
Rp606
(dp607
g19
I71
sg27
Nsg28
Nsg29
Nsbsg30
I3
sg31
F72.5
sbs(g8
Vcontains(organize)
p608
tp609
g0
(g14
g2
Ntp610
Rp611
(dp612
g18
F0.5
sg19
I99
sg20
g0
(g21
g22
(dp613
I00
I99
stp614
Rp615
(dp616
g19
I99
sg27
Nsg28
Nsg29
Nsbsg30
I3
sg31
F100.5
sbs(g8
Vcontains(kyun)
p617
tp618
g0
(g14
g2
Ntp619
Rp620
(dp621
g18
F0.5
sg19
I99
sg20
g0
(g21
g22
(dp622
I00
I97
sI01
I2
stp623
Rp624
(dp625
g19
I99
sg27
Nsg28
Nsg29
Nsbsg30
I3
sg31
F100.5
sbs(g9
Vcontains(sumeetha)
p626
tp627
g0
(g14
g2
Ntp628
Rp629
(dp630
g18
F0.5
sg19
I71
sg20
g0
(g21
g22
(dp631
I00
I70
sI01
I1
stp632
Rp633
(dp634
g19
I71
sg27
Nsg28
Nsg29
Nsbsg30
I3
sg31
F72.5
sbs(g8
Vcontains(masons)
p635
tp636
g0
(g14
g2
Ntp637
Rp638
(dp639
g18
F0.5
sg19
I99
sg20
g0
(g21
g22
(dp640
I00
I99
stp641
Rp642
(dp643
g19
I99
sg27
Nsg28
Nsg29
Nsbsg30
I3
sg31
F100.5
sbs(g9
Vcontains(yes)
p644
tp645
g0
(g14
g2
Ntp646
Rp647
(dp648
g18
F0.5
sg19
I71
sg20
g0
(g21
g22
(dp649
I00
I70
sI01
I1
stp650
Rp651
(dp652
g19
I71
sg27
Nsg28
Nsg29
Nsbsg30
I3
sg31
F72.5
sbs(g9
Vcontains(colwyn)
p653
tp654
g0
(g14
g2
Ntp655
Rp656
(dp657
g18
F0.5
sg19
I71
sg20
g0
(g21
g22
(dp658
I00
I70
sI01
I1
stp659
Rp660
(dp661
g19
I71
sg27
Nsg28
Nsg29
Nsbsg30
I3
sg31
F72.5
sbs(g9
Vcontains(figure)
p662
tp663
g0
(g14
g2
Ntp664
Rp665
(dp666
g18
F0.5
sg19
I71
sg20
g0
(g21
g22
(dp667
I00
I71
stp668
Rp669
(dp670
g19
I71
sg27
Nsg28
Nsg29
Nsbsg30
I3
sg31
F72.5
sbs(g8
Vcontains(chairman)
p671
tp672
g0
(g14
g2
Ntp673
Rp674
(dp675
g18
F0.5
sg19
I99
sg20
g0
(g21
g22
(dp676
I00
I99
stp677
Rp678
(dp679
g19
I99
sg27
Nsg28
Nsg29
Nsbsg30
I3
sg31
F100.5
sbs(g8
Vcontains(doing)
p680
tp681
g0
(g14
g2
Ntp682
Rp683
(dp684
g18
F0.5
sg19
I99
sg20
g0
(g21
g22
(dp685
I00
I98
sI01
I1
stp686
Rp687
(dp688
g19
I99
sg27
Nsg28
Nsg29
Nsbsg30
I3
sg31
F100.5
sbs(g9
Vcontains(ilovebeingafrican)
p689
tp690
g0
(g14
g2
Ntp691
Rp692
(dp693
g18
F0.5
sg19
I71
sg20
g0
(g21
g22
(dp694
I00
I71
stp695
Rp696
(dp697
g19
I71
sg27
Nsg28
Nsg29
Nsbsg30
I3
sg31
F72.5
sbs(g9
Vcontains(direct)
p698
tp699
g0
(g14
g2
Ntp700
Rp701
(dp702
g18
F0.5
sg19
I71
sg20
g0
(g21
g22
(dp703
I00
I71
stp704
Rp705
(dp706
g19
I71
sg27
Nsg28
Nsg29
Nsbsg30
I3
sg31
F72.5
sbs(g8
Vcontains(sindh)
p707
tp708
g0
(g14
g2
Ntp709
Rp710
(dp711
g18
F0.5
sg19
I99
sg20
g0
(g21
g22
(dp712
I00
I99
stp713
Rp714
(dp715
g19
I99
sg27
Nsg28
Nsg29
Nsbsg30
I3
sg31
F100.5
sbs(g9
Vcontains(pisces)
p716
tp717
g0
(g14
g2
Ntp718
Rp719
(dp720
g18
F0.5
sg19
I71
sg20
g0
(g21
g22
(dp721
I00
I59
sI01
I12
stp722
Rp723
(dp724
g19
I71
sg27
Nsg28
Nsg29
Nsbsg30
I3
sg31
F72.5
sbs(g8
Vcontains(examples)
p725
tp726
g0
(g14
g2
Ntp727
Rp728
(dp729
g18
F0.5
sg19
I99
sg20
g0
(g21
g22
(dp730
I00
I99
stp731
Rp732
(dp733
g19
I99
sg27
Nsg28
Nsg29
Nsbsg30
I3
sg31
F100.5
sbs(g8
Vcontains(negative)
p734
tp735
g0
(g14
g2
Ntp736
Rp737
(dp738
g18
F0.5
sg19
I99
sg20
g0
(g21
g22
(dp739
I00
I99
stp740
Rp741
(dp742
g19
I99
sg27
Nsg28
Nsg29
Nsbsg30
I3
sg31
F100.5
sbs(g9
Vcontains(learning)
p743
tp744
g0
(g14
g2
Ntp745
Rp746
(dp747
g18
F0.5
sg19
I71
sg20
g0
(g21
g22
(dp748
I00
I70
sI01
I1
stp749
Rp750
(dp751
g19
I71
sg27
Nsg28
Nsg29
Nsbsg30
I3
sg31
F72.5
sbs(g9
Vcontains(sugaboy)
p752
tp753
g0
(g14
g2
Ntp754
Rp755
(dp756
g18
F0.5
sg19
I71
sg20
g0
(g21
g22
(dp757
I00
I70
sI01
I1
stp758
Rp759
(dp760
g19
I71
sg27
Nsg28
Nsg29
Nsbsg30
I3
sg31
F72.5
sbs(g8
Vcontains(reading)
p761
tp762
g0
(g14
g2
Ntp763
Rp764
(dp765
g18
F0.5
sg19
I99
sg20
g0
(g21
g22
(dp766
I00
I99
stp767
Rp768
(dp769
g19
I99
sg27
Nsg28
Nsg29
Nsbsg30
I3
sg31
F100.5
sbs(g9
Vcontains(baseball)
p770
tp771
g0
(g14
g2
Ntp772
Rp773
(dp774
g18
F0.5
sg19
I71
sg20
g0
(g21
g22
(dp775
I00
I71
stp776
Rp777
(dp778
g19
I71
sg27
Nsg28
Nsg29
Nsbsg30
I3
sg31
F72.5
sbs(g8
Vcontains(marhoom)
p779
tp780
g0
(g14
g2
Ntp781
Rp782
(dp783
g18
F0.5
sg19
I99
sg20
g0
(g21
g22
(dp784
I00
I98
sI01
I1
stp785
Rp786
(dp787
g19
I99
sg27
Nsg28
Nsg29
Nsbsg30
I3
sg31
F100.5
sbs(g8
Vcontains(wrote)
p788
tp789
g0
(g14
g2
Ntp790
Rp791
(dp792
g18
F0.5
sg19
I99
sg20
g0
(g21
g22
(dp793
I00
I98
sI01
I1
stp794
Rp795
(dp796
g19
I99
sg27
Nsg28
Nsg29
Nsbsg30
I3
sg31
F100.5
sbs(g9
Vcontains(sativa)
p797
tp798
g0
(g14
g2
Ntp799
Rp800
(dp801
g18
F0.5
sg19
I71
sg20
g0
(g21
g22
(dp802
I00
I70
sI01
I1
stp803
Rp804
(dp805
g19
I71
sg27
Nsg28
Nsg29
Nsbsg30
I3
sg31
F72.5
sbs(g8
Vcontains(ha)
p806
tp807
g0
(g14
g2
Ntp808
Rp809
(dp810
g18
F0.5
sg19
I99
sg20
g0
(g21
g22
(dp811
I00
I97
sI01
I2
stp812
Rp813
(dp814
g19
I99
sg27
Nsg28
Nsg29
Nsbsg30
I3
sg31
F100.5
sbs(g9
Vcontains(mon)
p815
tp816
g0
(g14
g2
Ntp817
Rp818
(dp819
g18
F0.5
sg19
I71
sg20
g0
(g21
g22
(dp820
I00
I70
sI01
I1
stp821
Rp822
(dp823
g19
I71
sg27
Nsg28
Nsg29
Nsbsg30
I3
sg31
F72.5
sbs(g8
Vcontains(softball)
p824
tp825
g0
(g14
g2
Ntp826
Rp827
(dp828
g18
F0.5
sg19
I99
sg20
g0
(g21
g22
(dp829
I00
I97
sI01
I2
stp830
Rp831
(dp832
g19
I99
sg27
Nsg28
Nsg29
Nsbsg30
I3
sg31
F100.5
sbs(g9
Vcontains(sex)
p833
tp834
g0
(g14
g2
Ntp835
Rp836
(dp837
g18
F0.5
sg19
I71
sg20
g0
(g21
g22
(dp838
I00
I71
stp839
Rp840
(dp841
g19
I71
sg27
Nsg28
Nsg29
Nsbsg30
I3
sg31
F72.5
sbs(g9
Vcontains(set)
p842
tp843
g0
(g14
g2
Ntp844
Rp845
(dp846
g18
F0.5
sg19
I71
sg20
g0
(g21
g22
(dp847
I00
I70
sI01
I1
stp848
Rp849
(dp850
g19
I71
sg27
Nsg28
Nsg29
Nsbsg30
I3
sg31
F72.5
sbs(g9
Vcontains(achieved)
p851
tp852
g0
(g14
g2
Ntp853
Rp854
(dp855
g18
F0.5
sg19
I71
sg20
g0
(g21
g22
(dp856
I00
I71
stp857
Rp858
(dp859
g19
I71
sg27
Nsg28
Nsg29
Nsbsg30
I3
sg31
F72.5
sbs(g8
Vcontains(ethics)
p860
tp861
g0
(g14
g2
Ntp862
Rp863
(dp864
g18
F0.5
sg19
I99
sg20
g0
(g21
g22
(dp865
I00
I99
stp866
Rp867
(dp868
g19
I99
sg27
Nsg28
Nsg29
Nsbsg30
I3
sg31
F100.5
sbs(g8
Vcontains(ya)
p869
tp870
g0
(g14
g2
Ntp871
Rp872
(dp873
g18
F0.5
sg19
I99
sg20
g0
(g21
g22
(dp874
I00
I97
sI01
I2
stp875
Rp876
(dp877
g19
I99
sg27
Nsg28
Nsg29
Nsbsg30
I3
sg31
F100.5
sbs(g8
Vcontains(medical)
p878
tp879
g0
(g14
g2
Ntp880
Rp881
(dp882
g18
F0.5
sg19
I99
sg20
g0
(g21
g22
(dp883
I00
I99
stp884
Rp885
(dp886
g19
I99
sg27
Nsg28
Nsg29
Nsbsg30
I3
sg31
F100.5
sbs(g8
Vcontains(annoying)
p887
tp888
g0
(g14
g2
Ntp889
Rp890
(dp891
g18
F0.5
sg19
I99
sg20
g0
(g21
g22
(dp892
I00
I99
stp893
Rp894
(dp895
g19
I99
sg27
Nsg28
Nsg29
Nsbsg30
I3
sg31
F100.5
sbs(g9
Vcontains(responds)
p896
tp897
g0
(g14
g2
Ntp898
Rp899
(dp900
g18
F0.5
sg19
I71
sg20
g0
(g21
g22
(dp901
I00
I69
sI01
I2
stp902
Rp903
(dp904
g19
I71
sg27
Nsg28
Nsg29
Nsbsg30
I3
sg31
F72.5
sbs(g8
Vcontains(visual)
p905
tp906
g0
(g14
g2
Ntp907
Rp908
(dp909
g18
F0.5
sg19
I99
sg20
g0
(g21
g22
(dp910
I00
I99
stp911
Rp912
(dp913
g19
I99
sg27
Nsg28
Nsg29
Nsbsg30
I3
sg31
F100.5
sbs(g8
Vcontains(getting)
p914
tp915
g0
(g14
g2
Ntp916
Rp917
(dp918
g18
F0.5
sg19
I99
sg20
g0
(g21
g22
(dp919
I00
I97
sI01
I2
stp920
Rp921
(dp922
g19
I99
sg27
Nsg28
Nsg29
Nsbsg30
I3
sg31
F100.5
sbs(g9
Vcontains(mohammad)
p923
tp924
g0
(g14
g2
Ntp925
Rp926
(dp927
g18
F0.5
sg19
I71
sg20
g0
(g21
g22
(dp928
I00
I71
stp929
Rp930
(dp931
g19
I71
sg27
Nsg28
Nsg29
Nsbsg30
I3
sg31
F72.5
sbs(g9
Vcontains(talaga)
p932
tp933
g0
(g14
g2
Ntp934
Rp935
(dp936
g18
F0.5
sg19
I71
sg20
g0
(g21
g22
(dp937
I00
I71
stp938
Rp939
(dp940
g19
I71
sg27
Nsg28
Nsg29
Nsbsg30
I3
sg31
F72.5
sbs(g9
Vcontains(tonight)
p941
tp942
g0
(g14
g2
Ntp943
Rp944
(dp945
g18
F0.5
sg19
I71
sg20
g0
(g21
g22
(dp946
I00
I70
sI01
I1
stp947
Rp948
(dp949
g19
I71
sg27
Nsg28
Nsg29
Nsbsg30
I3
sg31
F72.5
sbs(g9
Vcontains(tim)
p950
tp951
g0
(g14
g2
Ntp952
Rp953
(dp954
g18
F0.5
sg19
I71
sg20
g0
(g21
g22
(dp955
I00
I70
sI01
I1
stp956
Rp957
(dp958
g19
I71
sg27
Nsg28
Nsg29
Nsbsg30
I3
sg31
F72.5
sbs(g9
Vcontains(clayton)
p959
tp960
g0
(g14
g2
Ntp961
Rp962
(dp963
g18
F0.5
sg19
I71
sg20
g0
(g21
g22
(dp964
I00
I71
stp965
Rp966
(dp967
g19
I71
sg27
Nsg28
Nsg29
Nsbsg30
I3
sg31
F72.5
sbs(g8
Vcontains(her)
p968
tp969
g0
(g14
g2
Ntp970
Rp971
(dp972
g18
F0.5
sg19
I99
sg20
g0
(g21
g22
(dp973
I00
I95
sI01
I4
stp974
Rp975
(dp976
g19
I99
sg27
Nsg28
Nsg29
Nsbsg30
I3
sg31
F100.5
sbs(g8
Vcontains(catt)
p977
tp978
g0
(g14
g2
Ntp979
Rp980
(dp981
g18
F0.5
sg19
I99
sg20
g0
(g21
g22
(dp982
I00
I99
stp983
Rp984
(dp985
g19
I99
sg27
Nsg28
Nsg29
Nsbsg30
I3
sg31
F100.5
sbs(g9
Vcontains(brexit)
p986
tp987
g0
(g14
g2
Ntp988
Rp989
(dp990
g18
F0.5
sg19
I71
sg20
g0
(g21
g22
(dp991
I00
I70
sI01
I1
stp992
Rp993
(dp994
g19
I71
sg27
Nsg28
Nsg29
Nsbsg30
I3
sg31
F72.5
sbs(g9
Vcontains(khoya)
p995
tp996
g0
(g14
g2
Ntp997
Rp998
(dp999
g18
F0.5
sg19
I71
sg20
g0
(g21
g22
(dp1000
I00
I70
sI01
I1
stp1001
Rp1002
(dp1003
g19
I71
sg27
Nsg28
Nsg29
Nsbsg30
I3
sg31
F72.5
sbs(g9
Vcontains(definitely)
p1004
tp1005
g0
(g14
g2
Ntp1006
Rp1007
(dp1008
g18
F0.5
sg19
I71
sg20
g0
(g21
g22
(dp1009
I00
I70
sI01
I1
stp1010
Rp1011
(dp1012
g19
I71
sg27
Nsg28
Nsg29
Nsbsg30
I3
sg31
F72.5
sbs(g9
Vcontains(btw)
p1013
tp1014
g0
(g14
g2
Ntp1015
Rp1016
(dp1017
g18
F0.5
sg19
I71
sg20
g0
(g21
g22
(dp1018
I00
I70
sI01
I1
stp1019
Rp1020
(dp1021
g19
I71
sg27
Nsg28
Nsg29
Nsbsg30
I3
sg31
F72.5
sbs(g8
Vcontains(joe)
p1022
tp1023
g0
(g14
g2
Ntp1024
Rp1025
(dp1026
g18
F0.5
sg19
I99
sg20
g0
(g21
g22
(dp1027
I00
I99
stp1028
Rp1029
(dp1030
g19
I99
sg27
Nsg28
Nsg29
Nsbsg30
I3
sg31
F100.5
sbs(g8
Vcontains(generative)
p1031
tp1032
g0
(g14
g2
Ntp1033
Rp1034
(dp1035
g18
F0.5
sg19
I99
sg20
g0
(g21
g22
(dp1036
I00
I99
stp1037
Rp1038
(dp1039
g19
I99
sg27
Nsg28
Nsg29
Nsbsg30
I3
sg31
F100.5
sbs(g9
Vcontains(bts)
p1040
tp1041
g0
(g14
g2
Ntp1042
Rp1043
(dp1044
g18
F0.5
sg19
I71
sg20
g0
(g21
g22
(dp1045
I00
I71
stp1046
Rp1047
(dp1048
g19
I71
sg27
Nsg28
Nsg29
Nsbsg30
I3
sg31
F72.5
sbs(g8
Vcontains(line)
p1049
tp1050
g0
(g14
g2
Ntp1051
Rp1052
(dp1053
g18
F0.5
sg19
I99
sg20
g0
(g21
g22
(dp1054
I00
I98
sI01
I1
stp1055
Rp1056
(dp1057
g19
I99
sg27
Nsg28
Nsg29
Nsbsg30
I3
sg31
F100.5
sbs(g8
Vcontains(sadqay)
p1058
tp1059
g0
(g14
g2
Ntp1060
Rp1061
(dp1062
g18
F0.5
sg19
I99
sg20
g0
(g21
g22
(dp1063
I00
I98
sI01
I1
stp1064
Rp1065
(dp1066
g19
I99
sg27
Nsg28
Nsg29
Nsbsg30
I3
sg31
F100.5
sbs(g9
Vcontains(problemi)
p1067
tp1068
g0
(g14
g2
Ntp1069
Rp1070
(dp1071
g18
F0.5
sg19
I71
sg20
g0
(g21
g22
(dp1072
I00
I70
sI01
I1
stp1073
Rp1074
(dp1075
g19
I71
sg27
Nsg28
Nsg29
Nsbsg30
I3
sg31
F72.5
sbs(g8
Vcontains(meals)
p1076
tp1077
g0
(g14
g2
Ntp1078
Rp1079
(dp1080
g18
F0.5
sg19
I99
sg20
g0
(g21
g22
(dp1081
I00
I99
stp1082
Rp1083
(dp1084
g19
I99
sg27
Nsg28
Nsg29
Nsbsg30
I3
sg31
F100.5
sbs(g8
Vcontains(hay)
p1085
tp1086
g0
(g14
g2
Ntp1087
Rp1088
(dp1089
g18
F0.5
sg19
I99
sg20
g0
(g21
g22
(dp1090
I00
I99
stp1091
Rp1092
(dp1093
g19
I99
sg27
Nsg28
Nsg29
Nsbsg30
I3
sg31
F100.5
sbs(g9
Vcontains(videos)
p1094
tp1095
g0
(g14
g2
Ntp1096
Rp1097
(dp1098
g18
F0.5
sg19
I71
sg20
g0
(g21
g22
(dp1099
I00
I69
sI01
I2
stp1100
Rp1101
(dp1102
g19
I71
sg27
Nsg28
Nsg29
Nsbsg30
I3
sg31
F72.5
sbs(g9
Vcontains(parehas)
p1103
tp1104
g0
(g14
g2
Ntp1105
Rp1106
(dp1107
g18
F0.5
sg19
I71
sg20
g0
(g21
g22
(dp1108
I00
I71
stp1109
Rp1110
(dp1111
g19
I71
sg27
Nsg28
Nsg29
Nsbsg30
I3
sg31
F72.5
sbs(g9
Vcontains(mah)
p1112
tp1113
g0
(g14
g2
Ntp1114
Rp1115
(dp1116
g18
F0.5
sg19
I71
sg20
g0
(g21
g22
(dp1117
I00
I71
stp1118
Rp1119
(dp1120
g19
I71
sg27
Nsg28
Nsg29
Nsbsg30
I3
sg31
F72.5
sbs(g8
Vcontains(maga)
p1121
tp1122
g0
(g14
g2
Ntp1123
Rp1124
(dp1125
g18
F0.5
sg19
I99
sg20
g0
(g21
g22
(dp1126
I00
I99
stp1127
Rp1128
(dp1129
g19
I99
sg27
Nsg28
Nsg29
Nsbsg30
I3
sg31
F100.5
sbs(g9
Vcontains(king)
p1130
tp1131
g0
(g14
g2
Ntp1132
Rp1133
(dp1134
g18
F0.5
sg19
I71
sg20
g0
(g21
g22
(dp1135
I00
I70
sI01
I1
stp1136
Rp1137
(dp1138
g19
I71
sg27
Nsg28
Nsg29
Nsbsg30
I3
sg31
F72.5
sbs(g9
Vcontains(book)
p1139
tp1140
g0
(g14
g2
Ntp1141
Rp1142
(dp1143
g18
F0.5
sg19
I71
sg20
g0
(g21
g22
(dp1144
I00
I70
sI01
I1
stp1145
Rp1146
(dp1147
g19
I71
sg27
Nsg28
Nsg29
Nsbsg30
I3
sg31
F72.5
sbs(g8
Vcontains(pee)
p1148
tp1149
g0
(g14
g2
Ntp1150
Rp1151
(dp1152
g18
F0.5
sg19
I99
sg20
g0
(g21
g22
(dp1153
I00
I99
stp1154
Rp1155
(dp1156
g19
I99
sg27
Nsg28
Nsg29
Nsbsg30
I3
sg31
F100.5
sbs(g8
Vcontains(private)
p1157
tp1158
g0
(g14
g2
Ntp1159
Rp1160
(dp1161
g18
F0.5
sg19
I99
sg20
g0
(g21
g22
(dp1162
I00
I99
stp1163
Rp1164
(dp1165
g19
I99
sg27
Nsg28
Nsg29
Nsbsg30
I3
sg31
F100.5
sbs(g8
Vcontains(naked)
p1166
tp1167
g0
(g14
g2
Ntp1168
Rp1169
(dp1170
g18
F0.5
sg19
I99
sg20
g0
(g21
g22
(dp1171
I00
I98
sI01
I1
stp1172
Rp1173
(dp1174
g19
I99
sg27
Nsg28
Nsg29
Nsbsg30
I3
sg31
F100.5
sbs(g9
Vcontains(promote)
p1175
tp1176
g0
(g14
g2
Ntp1177
Rp1178
(dp1179
g18
F0.5
sg19
I71
sg20
g0
(g21
g22
(dp1180
I00
I71
stp1181
Rp1182
(dp1183
g19
I71
sg27
Nsg28
Nsg29
Nsbsg30
I3
sg31
F72.5
sbs(g9
Vcontains(trump)
p1184
tp1185
g0
(g14
g2
Ntp1186
Rp1187
(dp1188
g18
F0.5
sg19
I71
sg20
g0
(g21
g22
(dp1189
I00
I68
sI01
I3
stp1190
Rp1191
(dp1192
g19
I71
sg27
Nsg28
Nsg29
Nsbsg30
I3
sg31
F72.5
sbs(g8
Vcontains(copying)
p1193
tp1194
g0
(g14
g2
Ntp1195
Rp1196
(dp1197
g18
F0.5
sg19
I99
sg20
g0
(g21
g22
(dp1198
I00
I97
sI01
I2
stp1199
Rp1200
(dp1201
g19
I99
sg27
Nsg28
Nsg29
Nsbsg30
I3
sg31
F100.5
sbs(g8
Vcontains(speech)
p1202
tp1203
g0
(g14
g2
Ntp1204
Rp1205
(dp1206
g18
F0.5
sg19
I99
sg20
g0
(g21
g22
(dp1207
I00
I99
stp1208
Rp1209
(dp1210
g19
I99
sg27
Nsg28
Nsg29
Nsbsg30
I3
sg31
F100.5
sbs(g9
Vcontains(affect)
p1211
tp1212
g0
(g14
g2
Ntp1213
Rp1214
(dp1215
g18
F0.5
sg19
I71
sg20
g0
(g21
g22
(dp1216
I00
I70
sI01
I1
stp1217
Rp1218
(dp1219
g19
I71
sg27
Nsg28
Nsg29
Nsbsg30
I3
sg31
F72.5
sbs(g9
Vcontains(allah)
p1220
tp1221
g0
(g14
g2
Ntp1222
Rp1223
(dp1224
g18
F0.5
sg19
I71
sg20
g0
(g21
g22
(dp1225
I00
I70
sI01
I1
stp1226
Rp1227
(dp1228
g19
I71
sg27
Nsg28
Nsg29
Nsbsg30
I3
sg31
F72.5
sbs(g8
Vcontains(india)
p1229
tp1230
g0
(g14
g2
Ntp1231
Rp1232
(dp1233
g18
F0.5
sg19
I99
sg20
g0
(g21
g22
(dp1234
I00
I98
sI01
I1
stp1235
Rp1236
(dp1237
g19
I99
sg27
Nsg28
Nsg29
Nsbsg30
I3
sg31
F100.5
sbs(g8
Vcontains(agents)
p1238
tp1239
g0
(g14
g2
Ntp1240
Rp1241
(dp1242
g18
F0.5
sg19
I99
sg20
g0
(g21
g22
(dp1243
I00
I99
stp1244
Rp1245
(dp1246
g19
I99
sg27
Nsg28
Nsg29
Nsbsg30
I3
sg31
F100.5
sbs(g9
Vcontains(dripped)
p1247
tp1248
g0
(g14
g2
Ntp1249
Rp1250
(dp1251
g18
F0.5
sg19
I71
sg20
g0
(g21
g22
(dp1252
I00
I70
sI01
I1
stp1253
Rp1254
(dp1255
g19
I71
sg27
Nsg28
Nsg29
Nsbsg30
I3
sg31
F72.5
sbs(g9
Vcontains(lah)
p1256
tp1257
g0
(g14
g2
Ntp1258
Rp1259
(dp1260
g18
F0.5
sg19
I71
sg20
g0
(g21
g22
(dp1261
I00
I70
sI01
I1
stp1262
Rp1263
(dp1264
g19
I71
sg27
Nsg28
Nsg29
Nsbsg30
I3
sg31
F72.5
sbs(g8
Vcontains(club)
p1265
tp1266
g0
(g14
g2
Ntp1267
Rp1268
(dp1269
g18
F0.5
sg19
I99
sg20
g0
(g21
g22
(dp1270
I00
I99
stp1271
Rp1272
(dp1273
g19
I99
sg27
Nsg28
Nsg29
Nsbsg30
I3
sg31
F100.5
sbs(g8
Vcontains(died)
p1274
tp1275
g0
(g14
g2
Ntp1276
Rp1277
(dp1278
g18
F0.5
sg19
I99
sg20
g0
(g21
g22
(dp1279
I00
I98
sI01
I1
stp1280
Rp1281
(dp1282
g19
I99
sg27
Nsg28
Nsg29
Nsbsg30
I3
sg31
F100.5
sbs(g8
Vcontains(tech)
p1283
tp1284
g0
(g14
g2
Ntp1285
Rp1286
(dp1287
g18
F0.5
sg19
I99
sg20
g0
(g21
g22
(dp1288
I00
I99
stp1289
Rp1290
(dp1291
g19
I99
sg27
Nsg28
Nsg29
Nsbsg30
I3
sg31
F100.5
sbs(g8
Vcontains(soundcloud)
p1292
tp1293
g0
(g14
g2
Ntp1294
Rp1295
(dp1296
g18
F0.5
sg19
I99
sg20
g0
(g21
g22
(dp1297
I00
I99
stp1298
Rp1299
(dp1300
g19
I99
sg27
Nsg28
Nsg29
Nsbsg30
I3
sg31
F100.5
sbs(g8
Vcontains(si)
p1301
tp1302
g0
(g14
g2
Ntp1303
Rp1304
(dp1305
g18
F0.5
sg19
I99
sg20
g0
(g21
g22
(dp1306
I00
I98
sI01
I1
stp1307
Rp1308
(dp1309
g19
I99
sg27
Nsg28
Nsg29
Nsbsg30
I3
sg31
F100.5
sbs(g8
Vcontains(giving)
p1310
tp1311
g0
(g14
g2
Ntp1312
Rp1313
(dp1314
g18
F0.5
sg19
I99
sg20
g0
(g21
g22
(dp1315
I00
I98
sI01
I1
stp1316
Rp1317
(dp1318
g19
I99
sg27
Nsg28
Nsg29
Nsbsg30
I3
sg31
F100.5
sbs(g9
Vcontains(grave)
p1319
tp1320
g0
(g14
g2
Ntp1321
Rp1322
(dp1323
g18
F0.5
sg19
I71
sg20
g0
(g21
g22
(dp1324
I00
I71
stp1325
Rp1326
(dp1327
g19
I71
sg27
Nsg28
Nsg29
Nsbsg30
I3
sg31
F72.5
sbs(g8
Vcontains(pruitt)
p1328
tp1329
g0
(g14
g2
Ntp1330
Rp1331
(dp1332
g18
F0.5
sg19
I99
sg20
g0
(g21
g22
(dp1333
I00
I97
sI01
I2
stp1334
Rp1335
(dp1336
g19
I99
sg27
Nsg28
Nsg29
Nsbsg30
I3
sg31
F100.5
sbs(g8
Vcontains(presentation)
p1337
tp1338
g0
(g14
g2
Ntp1339
Rp1340
(dp1341
g18
F0.5
sg19
I99
sg20
g0
(g21
g22
(dp1342
I00
I98
sI01
I1
stp1343
Rp1344
(dp1345
g19
I99
sg27
Nsg28
Nsg29
Nsbsg30
I3
sg31
F100.5
sbs(g9
Vcontains(mikey)
p1346
tp1347
g0
(g14
g2
Ntp1348
Rp1349
(dp1350
g18
F0.5
sg19
I71
sg20
g0
(g21
g22
(dp1351
I00
I70
sI01
I1
stp1352
Rp1353
(dp1354
g19
I71
sg27
Nsg28
Nsg29
Nsbsg30
I3
sg31
F72.5
sbs(g8
Vcontains(ghana)
p1355
tp1356
g0
(g14
g2
Ntp1357
Rp1358
(dp1359
g18
F0.5
sg19
I99
sg20
g0
(g21
g22
(dp1360
I00
I98
sI01
I1
stp1361
Rp1362
(dp1363
g19
I99
sg27
Nsg28
Nsg29
Nsbsg30
I3
sg31
F100.5
sbs(g9
Vcontains(tape)
p1364
tp1365
g0
(g14
g2
Ntp1366
Rp1367
(dp1368
g18
F0.5
sg19
I71
sg20
g0
(g21
g22
(dp1369
I00
I70
sI01
I1
stp1370
Rp1371
(dp1372
g19
I71
sg27
Nsg28
Nsg29
Nsbsg30
I3
sg31
F72.5
sbs(g9
Vcontains(nutrition)
p1373
tp1374
g0
(g14
g2
Ntp1375
Rp1376
(dp1377
g18
F0.5
sg19
I71
sg20
g0
(g21
g22
(dp1378
I00
I70
sI01
I1
stp1379
Rp1380
(dp1381
g19
I71
sg27
Nsg28
Nsg29
Nsbsg30
I3
sg31
F72.5
sbs(g8
Vcontains(join)
p1382
tp1383
g0
(g14
g2
Ntp1384
Rp1385
(dp1386
g18
F0.5
sg19
I99
sg20
g0
(g21
g22
(dp1387
I00
I96
sI01
I3
stp1388
Rp1389
(dp1390
g19
I99
sg27
Nsg28
Nsg29
Nsbsg30
I3
sg31
F100.5
sbs(g8
Vcontains(draped)
p1391
tp1392
g0
(g14
g2
Ntp1393
Rp1394
(dp1395
g18
F0.5
sg19
I99
sg20
g0
(g21
g22
(dp1396
I00
I99
stp1397
Rp1398
(dp1399
g19
I99
sg27
Nsg28
Nsg29
Nsbsg30
I3
sg31
F100.5
sbs(g9
Vcontains(chennai)
p1400
tp1401
g0
(g14
g2
Ntp1402
Rp1403
(dp1404
g18
F0.5
sg19
I71
sg20
g0
(g21
g22
(dp1405
I00
I70
sI01
I1
stp1406
Rp1407
(dp1408
g19
I71
sg27
Nsg28
Nsg29
Nsbsg30
I3
sg31
F72.5
sbs(g9
Vcontains(mission)
p1409
tp1410
g0
(g14
g2
Ntp1411
Rp1412
(dp1413
g18
F0.5
sg19
I71
sg20
g0
(g21
g22
(dp1414
I00
I70
sI01
I1
stp1415
Rp1416
(dp1417
g19
I71
sg27
Nsg28
Nsg29
Nsbsg30
I3
sg31
F72.5
sbs(g9
Vcontains(alan)
p1418
tp1419
g0
(g14
g2
Ntp1420
Rp1421
(dp1422
g18
F0.5
sg19
I71
sg20
g0
(g21
g22
(dp1423
I00
I71
stp1424
Rp1425
(dp1426
g19
I71
sg27
Nsg28
Nsg29
Nsbsg30
I3
sg31
F72.5
sbs(g8
Vcontains(brands)
p1427
tp1428
g0
(g14
g2
Ntp1429
Rp1430
(dp1431
g18
F0.5
sg19
I99
sg20
g0
(g21
g22
(dp1432
I00
I99
stp1433
Rp1434
(dp1435
g19
I99
sg27
Nsg28
Nsg29
Nsbsg30
I3
sg31
F100.5
sbs(g8
Vcontains(producing)
p1436
tp1437
g0
(g14
g2
Ntp1438
Rp1439
(dp1440
g18
F0.5
sg19
I99
sg20
g0
(g21
g22
(dp1441
I00
I99
stp1442
Rp1443
(dp1444
g19
I99
sg27
Nsg28
Nsg29
Nsbsg30
I3
sg31
F100.5
sbs(g8
Vcontains(friday)
p1445
tp1446
g0
(g14
g2
Ntp1447
Rp1448
(dp1449
g18
F0.5
sg19
I99
sg20
g0
(g21
g22
(dp1450
I00
I99
stp1451
Rp1452
(dp1453
g19
I99
sg27
Nsg28
Nsg29
Nsbsg30
I3
sg31
F100.5
sbs(g9
Vcontains(yass)
p1454
tp1455
g0
(g14
g2
Ntp1456
Rp1457
(dp1458
g18
F0.5
sg19
I71
sg20
g0
(g21
g22
(dp1459
I00
I70
sI01
I1
stp1460
Rp1461
(dp1462
g19
I71
sg27
Nsg28
Nsg29
Nsbsg30
I3
sg31
F72.5
sbs(g9
Vcontains(contact)
p1463
tp1464
g0
(g14
g2
Ntp1465
Rp1466
(dp1467
g18
F0.5
sg19
I71
sg20
g0
(g21
g22
(dp1468
I00
I70
sI01
I1
stp1469
Rp1470
(dp1471
g19
I71
sg27
Nsg28
Nsg29
Nsbsg30
I3
sg31
F72.5
sbs(g8
Vcontains(brother)
p1472
tp1473
g0
(g14
g2
Ntp1474
Rp1475
(dp1476
g18
F0.5
sg19
I99
sg20
g0
(g21
g22
(dp1477
I00
I99
stp1478
Rp1479
(dp1480
g19
I99
sg27
Nsg28
Nsg29
Nsbsg30
I3
sg31
F100.5
sbs(g8
Vcontains(bar)
p1481
tp1482
g0
(g14
g2
Ntp1483
Rp1484
(dp1485
g18
F0.5
sg19
I99
sg20
g0
(g21
g22
(dp1486
I00
I98
sI01
I1
stp1487
Rp1488
(dp1489
g19
I99
sg27
Nsg28
Nsg29
Nsbsg30
I3
sg31
F100.5
sbs(g8
Vcontains(wait)
p1490
tp1491
g0
(g14
g2
Ntp1492
Rp1493
(dp1494
g18
F0.5
sg19
I99
sg20
g0
(g21
g22
(dp1495
I00
I99
stp1496
Rp1497
(dp1498
g19
I99
sg27
Nsg28
Nsg29
Nsbsg30
I3
sg31
F100.5
sbs(g9
Vcontains(meals)
p1499
tp1500
g0
(g14
g2
Ntp1501
Rp1502
(dp1503
g18
F0.5
sg19
I71
sg20
g0
(g21
g22
(dp1504
I00
I70
sI01
I1
stp1505
Rp1506
(dp1507
g19
I71
sg27
Nsg28
Nsg29
Nsbsg30
I3
sg31
F72.5
sbs(g8
Vcontains(rules)
p1508
tp1509
g0
(g14
g2
Ntp1510
Rp1511
(dp1512
g18
F0.5
sg19
I99
sg20
g0
(g21
g22
(dp1513
I00
I99
stp1514
Rp1515
(dp1516
g19
I99
sg27
Nsg28
Nsg29
Nsbsg30
I3
sg31
F100.5
sbs(g8
Vcontains(saturday)
p1517
tp1518
g0
(g14
g2
Ntp1519
Rp1520
(dp1521
g18
F0.5
sg19
I99
sg20
g0
(g21
g22
(dp1522
I00
I99
stp1523
Rp1524
(dp1525
g19
I99
sg27
Nsg28
Nsg29
Nsbsg30
I3
sg31
F100.5
sbs(g9
Vcontains(james)
p1526
tp1527
g0
(g14
g2
Ntp1528
Rp1529
(dp1530
g18
F0.5
sg19
I71
sg20
g0
(g21
g22
(dp1531
I00
I68
sI01
I3
stp1532
Rp1533
(dp1534
g19
I71
sg27
Nsg28
Nsg29
Nsbsg30
I3
sg31
F72.5
sbs(g9
Vcontains(favorite)
p1535
tp1536
g0
(g14
g2
Ntp1537
Rp1538
(dp1539
g18
F0.5
sg19
I71
sg20
g0
(g21
g22
(dp1540
I00
I70
sI01
I1
stp1541
Rp1542
(dp1543
g19
I71
sg27
Nsg28
Nsg29
Nsbsg30
I3
sg31
F72.5
sbs(g8
Vcontains(extraordinary)
p1544
tp1545
g0
(g14
g2
Ntp1546
Rp1547
(dp1548
g18
F0.5
sg19
I99
sg20
g0
(g21
g22
(dp1549
I00
I98
sI01
I1
stp1550
Rp1551
(dp1552
g19
I99
sg27
Nsg28
Nsg29
Nsbsg30
I3
sg31
F100.5
sbs(g9
Vcontains(senior)
p1553
tp1554
g0
(g14
g2
Ntp1555
Rp1556
(dp1557
g18
F0.5
sg19
I71
sg20
g0
(g21
g22
(dp1558
I00
I70
sI01
I1
stp1559
Rp1560
(dp1561
g19
I71
sg27
Nsg28
Nsg29
Nsbsg30
I3
sg31
F72.5
sbs(g8
Vcontains(past)
p1562
tp1563
g0
(g14
g2
Ntp1564
Rp1565
(dp1566
g18
F0.5
sg19
I99
sg20
g0
(g21
g22
(dp1567
I00
I99
stp1568
Rp1569
(dp1570
g19
I99
sg27
Nsg28
Nsg29
Nsbsg30
I3
sg31
F100.5
sbs(g8
Vcontains(mominaat)
p1571
tp1572
g0
(g14
g2
Ntp1573
Rp1574
(dp1575
g18
F0.5
sg19
I99
sg20
g0
(g21
g22
(dp1576
I00
I98
sI01
I1
stp1577
Rp1578
(dp1579
g19
I99
sg27
Nsg28
Nsg29
Nsbsg30
I3
sg31
F100.5
sbs(g8
Vcontains(kk)
p1580
tp1581
g0
(g14
g2
Ntp1582
Rp1583
(dp1584
g18
F0.5
sg19
I99
sg20
g0
(g21
g22
(dp1585
I00
I98
sI01
I1
stp1586
Rp1587
(dp1588
g19
I99
sg27
Nsg28
Nsg29
Nsbsg30
I3
sg31
F100.5
sbs(g9
Vcontains(govt)
p1589
tp1590
g0
(g14
g2
Ntp1591
Rp1592
(dp1593
g18
F0.5
sg19
I71
sg20
g0
(g21
g22
(dp1594
I00
I70
sI01
I1
stp1595
Rp1596
(dp1597
g19
I71
sg27
Nsg28
Nsg29
Nsbsg30
I3
sg31
F72.5
sbs(g8
Vcontains(ko)
p1598
tp1599
g0
(g14
g2
Ntp1600
Rp1601
(dp1602
g18
F0.5
sg19
I99
sg20
g0
(g21
g22
(dp1603
I00
I98
sI01
I1
stp1604
Rp1605
(dp1606
g19
I99
sg27
Nsg28
Nsg29
Nsbsg30
I3
sg31
F100.5
sbs(g9
Vcontains(np)
p1607
tp1608
g0
(g14
g2
Ntp1609
Rp1610
(dp1611
g18
F0.5
sg19
I71
sg20
g0
(g21
g22
(dp1612
I00
I70
sI01
I1
stp1613
Rp1614
(dp1615
g19
I71
sg27
Nsg28
Nsg29
Nsbsg30
I3
sg31
F72.5
sbs(g8
Vcontains(clayton)
p1616
tp1617
g0
(g14
g2
Ntp1618
Rp1619
(dp1620
g18
F0.5
sg19
I99
sg20
g0
(g21
g22
(dp1621
I00
I98
sI01
I1
stp1622
Rp1623
(dp1624
g19
I99
sg27
Nsg28
Nsg29
Nsbsg30
I3
sg31
F100.5
sbs(g8
Vcontains(forgot)
p1625
tp1626
g0
(g14
g2
Ntp1627
Rp1628
(dp1629
g18
F0.5
sg19
I99
sg20
g0
(g21
g22
(dp1630
I00
I98
sI01
I1
stp1631
Rp1632
(dp1633
g19
I99
sg27
Nsg28
Nsg29
Nsbsg30
I3
sg31
F100.5
sbs(g8
Vcontains(wounded)
p1634
tp1635
g0
(g14
g2
Ntp1636
Rp1637
(dp1638
g18
F0.5
sg19
I99
sg20
g0
(g21
g22
(dp1639
I00
I98
sI01
I1
stp1640
Rp1641
(dp1642
g19
I99
sg27
Nsg28
Nsg29
Nsbsg30
I3
sg31
F100.5
sbs(g9
Vcontains(huge)
p1643
tp1644
g0
(g14
g2
Ntp1645
Rp1646
(dp1647
g18
F0.5
sg19
I71
sg20
g0
(g21
g22
(dp1648
I00
I70
sI01
I1
stp1649
Rp1650
(dp1651
g19
I71
sg27
Nsg28
Nsg29
Nsbsg30
I3
sg31
F72.5
sbs(g8
Vcontains(night)
p1652
tp1653
g0
(g14
g2
Ntp1654
Rp1655
(dp1656
g18
F0.5
sg19
I99
sg20
g0
(g21
g22
(dp1657
I00
I97
sI01
I2
stp1658
Rp1659
(dp1660
g19
I99
sg27
Nsg28
Nsg29
Nsbsg30
I3
sg31
F100.5
sbs(g9
Vcontains(blast)
p1661
tp1662
g0
(g14
g2
Ntp1663
Rp1664
(dp1665
g18
F0.5
sg19
I71
sg20
g0
(g21
g22
(dp1666
I00
I70
sI01
I1
stp1667
Rp1668
(dp1669
g19
I71
sg27
Nsg28
Nsg29
Nsbsg30
I3
sg31
F72.5
sbs(g8
Vcontains(blood)
p1670
tp1671
g0
(g14
g2
Ntp1672
Rp1673
(dp1674
g18
F0.5
sg19
I99
sg20
g0
(g21
g22
(dp1675
I00
I99
stp1676
Rp1677
(dp1678
g19
I99
sg27
Nsg28
Nsg29
Nsbsg30
I3
sg31
F100.5
sbs(g8
Vcontains(springday2ndwin)
p1679
tp1680
g0
(g14
g2
Ntp1681
Rp1682
(dp1683
g18
F0.5
sg19
I99
sg20
g0
(g21
g22
(dp1684
I00
I98
sI01
I1
stp1685
Rp1686
(dp1687
g19
I99
sg27
Nsg28
Nsg29
Nsbsg30
I3
sg31
F100.5
sbs(g9
Vcontains(liberals)
p1688
tp1689
g0
(g14
g2
Ntp1690
Rp1691
(dp1692
g18
F0.5
sg19
I71
sg20
g0
(g21
g22
(dp1693
I00
I70
sI01
I1
stp1694
Rp1695
(dp1696
g19
I71
sg27
Nsg28
Nsg29
Nsbsg30
I3
sg31
F72.5
sbs(g8
Vcontains(siya)
p1697
tp1698
g0
(g14
g2
Ntp1699
Rp1700
(dp1701
g18
F0.5
sg19
I99
sg20
g0
(g21
g22
(dp1702
I00
I98
sI01
I1
stp1703
Rp1704
(dp1705
g19
I99
sg27
Nsg28
Nsg29
Nsbsg30
I3
sg31
F100.5
sbs(g8
Vcontains(middle)
p1706
tp1707
g0
(g14
g2
Ntp1708
Rp1709
(dp1710
g18
F0.5
sg19
I99
sg20
g0
(g21
g22
(dp1711
I00
I99
stp1712
Rp1713
(dp1714
g19
I99
sg27
Nsg28
Nsg29
Nsbsg30
I3
sg31
F100.5
sbs(g9
Vcontains(mom)
p1715
tp1716
g0
(g14
g2
Ntp1717
Rp1718
(dp1719
g18
F0.5
sg19
I71
sg20
g0
(g21
g22
(dp1720
I00
I71
stp1721
Rp1722
(dp1723
g19
I71
sg27
Nsg28
Nsg29
Nsbsg30
I3
sg31
F72.5
sbs(g8
Vcontains(finally)
p1724
tp1725
g0
(g14
g2
Ntp1726
Rp1727
(dp1728
g18
F0.5
sg19
I99
sg20
g0
(g21
g22
(dp1729
I00
I99
stp1730
Rp1731
(dp1732
g19
I99
sg27
Nsg28
Nsg29
Nsbsg30
I3
sg31
F100.5
sbs(g9
Vcontains(ireland)
p1733
tp1734
g0
(g14
g2
Ntp1735
Rp1736
(dp1737
g18
F0.5
sg19
I71
sg20
g0
(g21
g22
(dp1738
I00
I70
sI01
I1
stp1739
Rp1740
(dp1741
g19
I71
sg27
Nsg28
Nsg29
Nsbsg30
I3
sg31
F72.5
sbs(g8
Vcontains(love)
p1742
tp1743
g0
(g14
g2
Ntp1744
Rp1745
(dp1746
g18
F0.5
sg19
I99
sg20
g0
(g21
g22
(dp1747
I00
I98
sI01
I1
stp1748
Rp1749
(dp1750
g19
I99
sg27
Nsg28
Nsg29
Nsbsg30
I3
sg31
F100.5
sbs(g8
Vcontains(class)
p1751
tp1752
g0
(g14
g2
Ntp1753
Rp1754
(dp1755
g18
F0.5
sg19
I99
sg20
g0
(g21
g22
(dp1756
I00
I99
stp1757
Rp1758
(dp1759
g19
I99
sg27
Nsg28
Nsg29
Nsbsg30
I3
sg31
F100.5
sbs(g8
Vcontains(caloor)
p1760
tp1761
g0
(g14
g2
Ntp1762
Rp1763
(dp1764
g18
F0.5
sg19
I99
sg20
g0
(g21
g22
(dp1765
I00
I99
stp1766
Rp1767
(dp1768
g19
I99
sg27
Nsg28
Nsg29
Nsbsg30
I3
sg31
F100.5
sbs(g8
Vcontains(die)
p1769
tp1770
g0
(g14
g2
Ntp1771
Rp1772
(dp1773
g18
F0.5
sg19
I99
sg20
g0
(g21
g22
(dp1774
I00
I99
stp1775
Rp1776
(dp1777
g19
I99
sg27
Nsg28
Nsg29
Nsbsg30
I3
sg31
F100.5
sbs(g8
Vcontains(scrap)
p1778
tp1779
g0
(g14
g2
Ntp1780
Rp1781
(dp1782
g18
F0.5
sg19
I99
sg20
g0
(g21
g22
(dp1783
I00
I99
stp1784
Rp1785
(dp1786
g19
I99
sg27
Nsg28
Nsg29
Nsbsg30
I3
sg31
F100.5
sbs(g9
Vcontains(world)
p1787
tp1788
g0
(g14
g2
Ntp1789
Rp1790
(dp1791
g18
F0.5
sg19
I71
sg20
g0
(g21
g22
(dp1792
I00
I70
sI01
I1
stp1793
Rp1794
(dp1795
g19
I71
sg27
Nsg28
Nsg29
Nsbsg30
I3
sg31
F72.5
sbs(g8
Vcontains(comedy)
p1796
tp1797
g0
(g14
g2
Ntp1798
Rp1799
(dp1800
g18
F0.5
sg19
I99
sg20
g0
(g21
g22
(dp1801
I00
I99
stp1802
Rp1803
(dp1804
g19
I99
sg27
Nsg28
Nsg29
Nsbsg30
I3
sg31
F100.5
sbs(g9
Vcontains(forgotten)
p1805
tp1806
g0
(g14
g2
Ntp1807
Rp1808
(dp1809
g18
F0.5
sg19
I71
sg20
g0
(g21
g22
(dp1810
I00
I70
sI01
I1
stp1811
Rp1812
(dp1813
g19
I71
sg27
Nsg28
Nsg29
Nsbsg30
I3
sg31
F72.5
sbs(g8
Vcontains(soon)
p1814
tp1815
g0
(g14
g2
Ntp1816
Rp1817
(dp1818
g18
F0.5
sg19
I99
sg20
g0
(g21
g22
(dp1819
I00
I99
stp1820
Rp1821
(dp1822
g19
I99
sg27
Nsg28
Nsg29
Nsbsg30
I3
sg31
F100.5
sbs(g9
Vcontains(hope)
p1823
tp1824
g0
(g14
g2
Ntp1825
Rp1826
(dp1827
g18
F0.5
sg19
I71
sg20
g0
(g21
g22
(dp1828
I00
I70
sI01
I1
stp1829
Rp1830
(dp1831
g19
I71
sg27
Nsg28
Nsg29
Nsbsg30
I3
sg31
F72.5
sbs(g9
Vcontains(team)
p1832
tp1833
g0
(g14
g2
Ntp1834
Rp1835
(dp1836
g18
F0.5
sg19
I71
sg20
g0
(g21
g22
(dp1837
I00
I70
sI01
I1
stp1838
Rp1839
(dp1840
g19
I71
sg27
Nsg28
Nsg29
Nsbsg30
I3
sg31
F72.5
sbs(g9
Vcontains(hello)
p1841
tp1842
g0
(g14
g2
Ntp1843
Rp1844
(dp1845
g18
F0.5
sg19
I71
sg20
g0
(g21
g22
(dp1846
I00
I71
stp1847
Rp1848
(dp1849
g19
I71
sg27
Nsg28
Nsg29
Nsbsg30
I3
sg31
F72.5
sbs(g8
Vcontains(peach)
p1850
tp1851
g0
(g14
g2
Ntp1852
Rp1853
(dp1854
g18
F0.5
sg19
I99
sg20
g0
(g21
g22
(dp1855
I00
I98
sI01
I1
stp1856
Rp1857
(dp1858
g19
I99
sg27
Nsg28
Nsg29
Nsbsg30
I3
sg31
F100.5
sbs(g9
Vcontains(mad)
p1859
tp1860
g0
(g14
g2
Ntp1861
Rp1862
(dp1863
g18
F0.5
sg19
I71
sg20
g0
(g21
g22
(dp1864
I00
I70
sI01
I1
stp1865
Rp1866
(dp1867
g19
I71
sg27
Nsg28
Nsg29
Nsbsg30
I3
sg31
F72.5
sbs(g8
Vcontains(exampl)
p1868
tp1869
g0
(g14
g2
Ntp1870
Rp1871
(dp1872
g18
F0.5
sg19
I99
sg20
g0
(g21
g22
(dp1873
I00
I99
stp1874
Rp1875
(dp1876
g19
I99
sg27
Nsg28
Nsg29
Nsbsg30
I3
sg31
F100.5
sbs(g9
Vcontains(attack)
p1877
tp1878
g0
(g14
g2
Ntp1879
Rp1880
(dp1881
g18
F0.5
sg19
I71
sg20
g0
(g21
g22
(dp1882
I00
I71
stp1883
Rp1884
(dp1885
g19
I71
sg27
Nsg28
Nsg29
Nsbsg30
I3
sg31
F72.5
sbs(g9
Vcontains(apart)
p1886
tp1887
g0
(g14
g2
Ntp1888
Rp1889
(dp1890
g18
F0.5
sg19
I71
sg20
g0
(g21
g22
(dp1891
I00
I70
sI01
I1
stp1892
Rp1893
(dp1894
g19
I71
sg27
Nsg28
Nsg29
Nsbsg30
I3
sg31
F72.5
sbs(g9
Vcontains(ba)
p1895
tp1896
g0
(g14
g2
Ntp1897
Rp1898
(dp1899
g18
F0.5
sg19
I71
sg20
g0
(g21
g22
(dp1900
I00
I71
stp1901
Rp1902
(dp1903
g19
I71
sg27
Nsg28
Nsg29
Nsbsg30
I3
sg31
F72.5
sbs(g9
Vcontains(lab)
p1904
tp1905
g0
(g14
g2
Ntp1906
Rp1907
(dp1908
g18
F0.5
sg19
I71
sg20
g0
(g21
g22
(dp1909
I00
I70
sI01
I1
stp1910
Rp1911
(dp1912
g19
I71
sg27
Nsg28
Nsg29
Nsbsg30
I3
sg31
F72.5
sbs(g8
Vcontains(council)
p1913
tp1914
g0
(g14
g2
Ntp1915
Rp1916
(dp1917
g18
F0.5
sg19
I99
sg20
g0
(g21
g22
(dp1918
I00
I99
stp1919
Rp1920
(dp1921
g19
I99
sg27
Nsg28
Nsg29
Nsbsg30
I3
sg31
F100.5
sbs(g9
Vcontains(hang)
p1922
tp1923
g0
(g14
g2
Ntp1924
Rp1925
(dp1926
g18
F0.5
sg19
I71
sg20
g0
(g21
g22
(dp1927
I00
I71
stp1928
Rp1929
(dp1930
g19
I71
sg27
Nsg28
Nsg29
Nsbsg30
I3
sg31
F72.5
sbs(g8
Vcontains(god)
p1931
tp1932
g0
(g14
g2
Ntp1933
Rp1934
(dp1935
g18
F0.5
sg19
I99
sg20
g0
(g21
g22
(dp1936
I00
I99
stp1937
Rp1938
(dp1939
g19
I99
sg27
Nsg28
Nsg29
Nsbsg30
I3
sg31
F100.5
sbs(g9
Vcontains(finesse)
p1940
tp1941
g0
(g14
g2
Ntp1942
Rp1943
(dp1944
g18
F0.5
sg19
I71
sg20
g0
(g21
g22
(dp1945
I00
I70
sI01
I1
stp1946
Rp1947
(dp1948
g19
I71
sg27
Nsg28
Nsg29
Nsbsg30
I3
sg31
F72.5
sbs(g8
Vcontains(call)
p1949
tp1950
g0
(g14
g2
Ntp1951
Rp1952
(dp1953
g18
F0.5
sg19
I99
sg20
g0
(g21
g22
(dp1954
I00
I98
sI01
I1
stp1955
Rp1956
(dp1957
g19
I99
sg27
Nsg28
Nsg29
Nsbsg30
I3
sg31
F100.5
sbs(g8
Vcontains(mothers)
p1958
tp1959
g0
(g14
g2
Ntp1960
Rp1961
(dp1962
g18
F0.5
sg19
I99
sg20
g0
(g21
g22
(dp1963
I00
I98
sI01
I1
stp1964
Rp1965
(dp1966
g19
I99
sg27
Nsg28
Nsg29
Nsbsg30
I3
sg31
F100.5
sbs(g9
Vcontains(research)
p1967
tp1968
g0
(g14
g2
Ntp1969
Rp1970
(dp1971
g18
F0.5
sg19
I71
sg20
g0
(g21
g22
(dp1972
I00
I70
sI01
I1
stp1973
Rp1974
(dp1975
g19
I71
sg27
Nsg28
Nsg29
Nsbsg30
I3
sg31
F72.5
sbs(g9
Vcontains(watch)
p1976
tp1977
g0
(g14
g2
Ntp1978
Rp1979
(dp1980
g18
F0.5
sg19
I71
sg20
g0
(g21
g22
(dp1981
I00
I68
sI01
I3
stp1982
Rp1983
(dp1984
g19
I71
sg27
Nsg28
Nsg29
Nsbsg30
I3
sg31
F72.5
sbs(g9
Vcontains(day)
p1985
tp1986
g0
(g14
g2
Ntp1987
Rp1988
(dp1989
g18
F0.5
sg19
I71
sg20
g0
(g21
g22
(dp1990
I00
I71
stp1991
Rp1992
(dp1993
g19
I71
sg27
Nsg28
Nsg29
Nsbsg30
I3
sg31
F72.5
sbs(g8
Vcontains(solved)
p1994
tp1995
g0
(g14
g2
Ntp1996
Rp1997
(dp1998
g18
F0.5
sg19
I99
sg20
g0
(g21
g22
(dp1999
I00
I99
stp2000
Rp2001
(dp2002
g19
I99
sg27
Nsg28
Nsg29
Nsbsg30
I3
sg31
F100.5
sbs(g8
Vcontains(clock)
p2003
tp2004
g0
(g14
g2
Ntp2005
Rp2006
(dp2007
g18
F0.5
sg19
I99
sg20
g0
(g21
g22
(dp2008
I00
I98
sI01
I1
stp2009
Rp2010
(dp2011
g19
I99
sg27
Nsg28
Nsg29
Nsbsg30
I3
sg31
F100.5
sbs(g9
Vcontains(writing)
p2012
tp2013
g0
(g14
g2
Ntp2014
Rp2015
(dp2016
g18
F0.5
sg19
I71
sg20
g0
(g21
g22
(dp2017
I00
I71
stp2018
Rp2019
(dp2020
g19
I71
sg27
Nsg28
Nsg29
Nsbsg30
I3
sg31
F72.5
sbs(g8
Vcontains(measures)
p2021
tp2022
g0
(g14
g2
Ntp2023
Rp2024
(dp2025
g18
F0.5
sg19
I99
sg20
g0
(g21
g22
(dp2026
I00
I74
sI01
I25
stp2027
Rp2028
(dp2029
g19
I99
sg27
Nsg28
Nsg29
Nsbsg30
I3
sg31
F100.5
sbs(g8
Vcontains(story)
p2030
tp2031
g0
(g14
g2
Ntp2032
Rp2033
(dp2034
g18
F0.5
sg19
I99
sg20
g0
(g21
g22
(dp2035
I00
I98
sI01
I1
stp2036
Rp2037
(dp2038
g19
I99
sg27
Nsg28
Nsg29
Nsbsg30
I3
sg31
F100.5
sbs(g9
Vcontains(wikileaks)
p2039
tp2040
g0
(g14
g2
Ntp2041
Rp2042
(dp2043
g18
F0.5
sg19
I71
sg20
g0
(g21
g22
(dp2044
I00
I70
sI01
I1
stp2045
Rp2046
(dp2047
g19
I71
sg27
Nsg28
Nsg29
Nsbsg30
I3
sg31
F72.5
sbs(g9
Vcontains(rebound)
p2048
tp2049
g0
(g14
g2
Ntp2050
Rp2051
(dp2052
g18
F0.5
sg19
I71
sg20
g0
(g21
g22
(dp2053
I00
I71
stp2054
Rp2055
(dp2056
g19
I71
sg27
Nsg28
Nsg29
Nsbsg30
I3
sg31
F72.5
sbs(g9
Vcontains(trp)
p2057
tp2058
g0
(g14
g2
Ntp2059
Rp2060
(dp2061
g18
F0.5
sg19
I71
sg20
g0
(g21
g22
(dp2062
I00
I71
stp2063
Rp2064
(dp2065
g19
I71
sg27
Nsg28
Nsg29
Nsbsg30
I3
sg31
F72.5
sbs(g8
Vcontains(charms)
p2066
tp2067
g0
(g14
g2
Ntp2068
Rp2069
(dp2070
g18
F0.5
sg19
I99
sg20
g0
(g21
g22
(dp2071
I00
I98
sI01
I1
stp2072
Rp2073
(dp2074
g19
I99
sg27
Nsg28
Nsg29
Nsbsg30
I3
sg31
F100.5
sbs(g8
Vcontains(he)
p2075
tp2076
g0
(g14
g2
Ntp2077
Rp2078
(dp2079
g18
F0.5
sg19
I99
sg20
g0
(g21
g22
(dp2080
I00
I96
sI01
I3
stp2081
Rp2082
(dp2083
g19
I99
sg27
Nsg28
Nsg29
Nsbsg30
I3
sg31
F100.5
sbs(g8
Vcontains(marry)
p2084
tp2085
g0
(g14
g2
Ntp2086
Rp2087
(dp2088
g18
F0.5
sg19
I99
sg20
g0
(g21
g22
(dp2089
I00
I98
sI01
I1
stp2090
Rp2091
(dp2092
g19
I99
sg27
Nsg28
Nsg29
Nsbsg30
I3
sg31
F100.5
sbs(g9
Vcontains(omg)
p2093
tp2094
g0
(g14
g2
Ntp2095
Rp2096
(dp2097
g18
F0.5
sg19
I71
sg20
g0
(g21
g22
(dp2098
I00
I71
stp2099
Rp2100
(dp2101
g19
I71
sg27
Nsg28
Nsg29
Nsbsg30
I3
sg31
F72.5
sbs(g9
Vcontains(due)
p2102
tp2103
g0
(g14
g2
Ntp2104
Rp2105
(dp2106
g18
F0.5
sg19
I71
sg20
g0
(g21
g22
(dp2107
I00
I71
stp2108
Rp2109
(dp2110
g19
I71
sg27
Nsg28
Nsg29
Nsbsg30
I3
sg31
F72.5
sbs(g8
Vcontains(program)
p2111
tp2112
g0
(g14
g2
Ntp2113
Rp2114
(dp2115
g18
F0.5
sg19
I99
sg20
g0
(g21
g22
(dp2116
I00
I99
stp2117
Rp2118
(dp2119
g19
I99
sg27
Nsg28
Nsg29
Nsbsg30
I3
sg31
F100.5
sbs(g8
Vcontains(energy)
p2120
tp2121
g0
(g14
g2
Ntp2122
Rp2123
(dp2124
g18
F0.5
sg19
I99
sg20
g0
(g21
g22
(dp2125
I00
I97
sI01
I2
stp2126
Rp2127
(dp2128
g19
I99
sg27
Nsg28
Nsg29
Nsbsg30
I3
sg31
F100.5
sbs(g8
Vcontains(im)
p2129
tp2130
g0
(g14
g2
Ntp2131
Rp2132
(dp2133
g18
F0.5
sg19
I99
sg20
g0
(g21
g22
(dp2134
I00
I99
stp2135
Rp2136
(dp2137
g19
I99
sg27
Nsg28
Nsg29
Nsbsg30
I3
sg31
F100.5
sbs(g9
Vcontains(soundcloud)
p2138
tp2139
g0
(g14
g2
Ntp2140
Rp2141
(dp2142
g18
F0.5
sg19
I71
sg20
g0
(g21
g22
(dp2143
I00
I69
sI01
I2
stp2144
Rp2145
(dp2146
g19
I71
sg27
Nsg28
Nsg29
Nsbsg30
I3
sg31
F72.5
sbs(g9
Vcontains(taught)
p2147
tp2148
g0
(g14
g2
Ntp2149
Rp2150
(dp2151
g18
F0.5
sg19
I71
sg20
g0
(g21
g22
(dp2152
I00
I71
stp2153
Rp2154
(dp2155
g19
I71
sg27
Nsg28
Nsg29
Nsbsg30
I3
sg31
F72.5
sbs(g8
Vcontains(allowing)
p2156
tp2157
g0
(g14
g2
Ntp2158
Rp2159
(dp2160
g18
F0.5
sg19
I99
sg20
g0
(g21
g22
(dp2161
I00
I99
stp2162
Rp2163
(dp2164
g19
I99
sg27
Nsg28
Nsg29
Nsbsg30
I3
sg31
F100.5
sbs(g9
Vcontains(lmao)
p2165
tp2166
g0
(g14
g2
Ntp2167
Rp2168
(dp2169
g18
F0.5
sg19
I71
sg20
g0
(g21
g22
(dp2170
I00
I70
sI01
I1
stp2171
Rp2172
(dp2173
g19
I71
sg27
Nsg28
Nsg29
Nsbsg30
I3
sg31
F72.5
sbs(g8
Vcontains(indy)
p2174
tp2175
g0
(g14
g2
Ntp2176
Rp2177
(dp2178
g18
F0.5
sg19
I99
sg20
g0
(g21
g22
(dp2179
I00
I99
stp2180
Rp2181
(dp2182
g19
I99
sg27
Nsg28
Nsg29
Nsbsg30
I3
sg31
F100.5
sbs(g8
Vcontains(release)
p2183
tp2184
g0
(g14
g2
Ntp2185
Rp2186
(dp2187
g18
F0.5
sg19
I99
sg20
g0
(g21
g22
(dp2188
I00
I97
sI01
I2
stp2189
Rp2190
(dp2191
g19
I99
sg27
Nsg28
Nsg29
Nsbsg30
I3
sg31
F100.5
sbs(g8
Vcontains(bob)
p2192
tp2193
g0
(g14
g2
Ntp2194
Rp2195
(dp2196
g18
F0.5
sg19
I99
sg20
g0
(g21
g22
(dp2197
I00
I99
stp2198
Rp2199
(dp2200
g19
I99
sg27
Nsg28
Nsg29
Nsbsg30
I3
sg31
F100.5
sbs(g9
Vcontains(follow)
p2201
tp2202
g0
(g14
g2
Ntp2203
Rp2204
(dp2205
g18
F0.5
sg19
I71
sg20
g0
(g21
g22
(dp2206
I00
I70
sI01
I1
stp2207
Rp2208
(dp2209
g19
I71
sg27
Nsg28
Nsg29
Nsbsg30
I3
sg31
F72.5
sbs(g9
Vcontains(nba2k17)
p2210
tp2211
g0
(g14
g2
Ntp2212
Rp2213
(dp2214
g18
F0.5
sg19
I71
sg20
g0
(g21
g22
(dp2215
I00
I70
sI01
I1
stp2216
Rp2217
(dp2218
g19
I71
sg27
Nsg28
Nsg29
Nsbsg30
I3
sg31
F72.5
sbs(g8
Vcontains(likes)
p2219
tp2220
g0
(g14
g2
Ntp2221
Rp2222
(dp2223
g18
F0.5
sg19
I99
sg20
g0
(g21
g22
(dp2224
I00
I99
stp2225
Rp2226
(dp2227
g19
I99
sg27
Nsg28
Nsg29
Nsbsg30
I3
sg31
F100.5
sbs(g9
Vcontains(spend)
p2228
tp2229
g0
(g14
g2
Ntp2230
Rp2231
(dp2232
g18
F0.5
sg19
I71
sg20
g0
(g21
g22
(dp2233
I00
I70
sI01
I1
stp2234
Rp2235
(dp2236
g19
I71
sg27
Nsg28
Nsg29
Nsbsg30
I3
sg31
F72.5
sbs(g8
Vcontains(awesome)
p2237
tp2238
g0
(g14
g2
Ntp2239
Rp2240
(dp2241
g18
F0.5
sg19
I99
sg20
g0
(g21
g22
(dp2242
I00
I98
sI01
I1
stp2243
Rp2244
(dp2245
g19
I99
sg27
Nsg28
Nsg29
Nsbsg30
I3
sg31
F100.5
sbs(g8
Vcontains(familiar)
p2246
tp2247
g0
(g14
g2
Ntp2248
Rp2249
(dp2250
g18
F0.5
sg19
I99
sg20
g0
(g21
g22
(dp2251
I00
I98
sI01
I1
stp2252
Rp2253
(dp2254
g19
I99
sg27
Nsg28
Nsg29
Nsbsg30
I3
sg31
F100.5
sbs(g9
Vcontains(methods)
p2255
tp2256
g0
(g14
g2
Ntp2257
Rp2258
(dp2259
g18
F0.5
sg19
I71
sg20
g0
(g21
g22
(dp2260
I00
I70
sI01
I1
stp2261
Rp2262
(dp2263
g19
I71
sg27
Nsg28
Nsg29
Nsbsg30
I3
sg31
F72.5
sbs(g9
Vcontains(prepare)
p2264
tp2265
g0
(g14
g2
Ntp2266
Rp2267
(dp2268
g18
F0.5
sg19
I71
sg20
g0
(g21
g22
(dp2269
I00
I71
stp2270
Rp2271
(dp2272
g19
I71
sg27
Nsg28
Nsg29
Nsbsg30
I3
sg31
F72.5
sbs(g9
Vcontains(official)
p2273
tp2274
g0
(g14
g2
Ntp2275
Rp2276
(dp2277
g18
F0.5
sg19
I71
sg20
g0
(g21
g22
(dp2278
I00
I71
stp2279
Rp2280
(dp2281
g19
I71
sg27
Nsg28
Nsg29
Nsbsg30
I3
sg31
F72.5
sbs(g8
Vcontains(maybe)
p2282
tp2283
g0
(g14
g2
Ntp2284
Rp2285
(dp2286
g18
F0.5
sg19
I99
sg20
g0
(g21
g22
(dp2287
I00
I99
stp2288
Rp2289
(dp2290
g19
I99
sg27
Nsg28
Nsg29
Nsbsg30
I3
sg31
F100.5
sbs(g8
Vcontains(queen)
p2291
tp2292
g0
(g14
g2
Ntp2293
Rp2294
(dp2295
g18
F0.5
sg19
I99
sg20
g0
(g21
g22
(dp2296
I00
I99
stp2297
Rp2298
(dp2299
g19
I99
sg27
Nsg28
Nsg29
Nsbsg30
I3
sg31
F100.5
sbs(g9
Vcontains(aggression)
p2300
tp2301
g0
(g14
g2
Ntp2302
Rp2303
(dp2304
g18
F0.5
sg19
I71
sg20
g0
(g21
g22
(dp2305
I00
I70
sI01
I1
stp2306
Rp2307
(dp2308
g19
I71
sg27
Nsg28
Nsg29
Nsbsg30
I3
sg31
F72.5
sbs(g8
Vcontains(raw)
p2309
tp2310
g0
(g14
g2
Ntp2311
Rp2312
(dp2313
g18
F0.5
sg19
I99
sg20
g0
(g21
g22
(dp2314
I00
I99
stp2315
Rp2316
(dp2317
g19
I99
sg27
Nsg28
Nsg29
Nsbsg30
I3
sg31
F100.5
sbs(g8
Vcontains(hacks)
p2318
tp2319
g0
(g14
g2
Ntp2320
Rp2321
(dp2322
g18
F0.5
sg19
I99
sg20
g0
(g21
g22
(dp2323
I00
I99
stp2324
Rp2325
(dp2326
g19
I99
sg27
Nsg28
Nsg29
Nsbsg30
I3
sg31
F100.5
sbs(g9
Vcontains(googlei)
p2327
tp2328
g0
(g14
g2
Ntp2329
Rp2330
(dp2331
g18
F0.5
sg19
I71
sg20
g0
(g21
g22
(dp2332
I00
I70
sI01
I1
stp2333
Rp2334
(dp2335
g19
I71
sg27
Nsg28
Nsg29
Nsbsg30
I3
sg31
F72.5
sbs(g8
Vcontains(haters)
p2336
tp2337
g0
(g14
g2
Ntp2338
Rp2339
(dp2340
g18
F0.5
sg19
I99
sg20
g0
(g21
g22
(dp2341
I00
I98
sI01
I1
stp2342
Rp2343
(dp2344
g19
I99
sg27
Nsg28
Nsg29
Nsbsg30
I3
sg31
F100.5
sbs(g8
Vcontains(mylapore)
p2345
tp2346
g0
(g14
g2
Ntp2347
Rp2348
(dp2349
g18
F0.5
sg19
I99
sg20
g0
(g21
g22
(dp2350
I00
I99
stp2351
Rp2352
(dp2353
g19
I99
sg27
Nsg28
Nsg29
Nsbsg30
I3
sg31
F100.5
sbs(g9
Vcontains(family)
p2354
tp2355
g0
(g14
g2
Ntp2356
Rp2357
(dp2358
g18
F0.5
sg19
I71
sg20
g0
(g21
g22
(dp2359
I00
I70
sI01
I1
stp2360
Rp2361
(dp2362
g19
I71
sg27
Nsg28
Nsg29
Nsbsg30
I3
sg31
F72.5
sbs(g8
Vcontains(statement)
p2363
tp2364
g0
(g14
g2
Ntp2365
Rp2366
(dp2367
g18
F0.5
sg19
I99
sg20
g0
(g21
g22
(dp2368
I00
I97
sI01
I2
stp2369
Rp2370
(dp2371
g19
I99
sg27
Nsg28
Nsg29
Nsbsg30
I3
sg31
F100.5
sbs(g8
Vcontains(bauchi)
p2372
tp2373
g0
(g14
g2
Ntp2374
Rp2375
(dp2376
g18
F0.5
sg19
I99
sg20
g0
(g21
g22
(dp2377
I00
I99
stp2378
Rp2379
(dp2380
g19
I99
sg27
Nsg28
Nsg29
Nsbsg30
I3
sg31
F100.5
sbs(g9
Vcontains(escort)
p2381
tp2382
g0
(g14
g2
Ntp2383
Rp2384
(dp2385
g18
F0.5
sg19
I71
sg20
g0
(g21
g22
(dp2386
I00
I71
stp2387
Rp2388
(dp2389
g19
I71
sg27
Nsg28
Nsg29
Nsbsg30
I3
sg31
F72.5
sbs(g9
Vcontains(hours)
p2390
tp2391
g0
(g14
g2
Ntp2392
Rp2393
(dp2394
g18
F0.5
sg19
I71
sg20
g0
(g21
g22
(dp2395
I00
I70
sI01
I1
stp2396
Rp2397
(dp2398
g19
I71
sg27
Nsg28
Nsg29
Nsbsg30
I3
sg31
F72.5
sbs(g8
Vcontains(a1)
p2399
tp2400
g0
(g14
g2
Ntp2401
Rp2402
(dp2403
g18
F0.5
sg19
I99
sg20
g0
(g21
g22
(dp2404
I00
I99
stp2405
Rp2406
(dp2407
g19
I99
sg27
Nsg28
Nsg29
Nsbsg30
I3
sg31
F100.5
sbs(g8
Vcontains(agree)
p2408
tp2409
g0
(g14
g2
Ntp2410
Rp2411
(dp2412
g18
F0.5
sg19
I99
sg20
g0
(g21
g22
(dp2413
I00
I97
sI01
I2
stp2414
Rp2415
(dp2416
g19
I99
sg27
Nsg28
Nsg29
Nsbsg30
I3
sg31
F100.5
sbs(g9
Vcontains(ordinary)
p2417
tp2418
g0
(g14
g2
Ntp2419
Rp2420
(dp2421
g18
F0.5
sg19
I71
sg20
g0
(g21
g22
(dp2422
I00
I71
stp2423
Rp2424
(dp2425
g19
I71
sg27
Nsg28
Nsg29
Nsbsg30
I3
sg31
F72.5
sbs(g8
Vcontains(na)
p2426
tp2427
g0
(g14
g2
Ntp2428
Rp2429
(dp2430
g18
F0.5
sg19
I99
sg20
g0
(g21
g22
(dp2431
I00
I99
stp2432
Rp2433
(dp2434
g19
I99
sg27
Nsg28
Nsg29
Nsbsg30
I3
sg31
F100.5
sbs(g9
Vcontains(covenanti)
p2435
tp2436
g0
(g14
g2
Ntp2437
Rp2438
(dp2439
g18
F0.5
sg19
I71
sg20
g0
(g21
g22
(dp2440
I00
I70
sI01
I1
stp2441
Rp2442
(dp2443
g19
I71
sg27
Nsg28
Nsg29
Nsbsg30
I3
sg31
F72.5
sbs(g9
Vcontains(dubai)
p2444
tp2445
g0
(g14
g2
Ntp2446
Rp2447
(dp2448
g18
F0.5
sg19
I71
sg20
g0
(g21
g22
(dp2449
I00
I71
stp2450
Rp2451
(dp2452
g19
I71
sg27
Nsg28
Nsg29
Nsbsg30
I3
sg31
F72.5
sbs(g8
Vcontains(trendd)
p2453
tp2454
g0
(g14
g2
Ntp2455
Rp2456
(dp2457
g18
F0.5
sg19
I99
sg20
g0
(g21
g22
(dp2458
I00
I98
sI01
I1
stp2459
Rp2460
(dp2461
g19
I99
sg27
Nsg28
Nsg29
Nsbsg30
I3
sg31
F100.5
sbs(g8
Vcontains(exposed)
p2462
tp2463
g0
(g14
g2
Ntp2464
Rp2465
(dp2466
g18
F0.5
sg19
I99
sg20
g0
(g21
g22
(dp2467
I00
I99
stp2468
Rp2469
(dp2470
g19
I99
sg27
Nsg28
Nsg29
Nsbsg30
I3
sg31
F100.5
sbs(g8
Vcontains(choose)
p2471
tp2472
g0
(g14
g2
Ntp2473
Rp2474
(dp2475
g18
F0.5
sg19
I99
sg20
g0
(g21
g22
(dp2476
I00
I97
sI01
I2
stp2477
Rp2478
(dp2479
g19
I99
sg27
Nsg28
Nsg29
Nsbsg30
I3
sg31
F100.5
sbs(g8
Vcontains(days)
p2480
tp2481
g0
(g14
g2
Ntp2482
Rp2483
(dp2484
g18
F0.5
sg19
I99
sg20
g0
(g21
g22
(dp2485
I00
I98
sI01
I1
stp2486
Rp2487
(dp2488
g19
I99
sg27
Nsg28
Nsg29
Nsbsg30
I3
sg31
F100.5
sbs(g8
Vcontains(seriously)
p2489
tp2490
g0
(g14
g2
Ntp2491
Rp2492
(dp2493
g18
F0.5
sg19
I99
sg20
g0
(g21
g22
(dp2494
I00
I98
sI01
I1
stp2495
Rp2496
(dp2497
g19
I99
sg27
Nsg28
Nsg29
Nsbsg30
I3
sg31
F100.5
sbs(g8
Vcontains(mcadoo)
p2498
tp2499
g0
(g14
g2
Ntp2500
Rp2501
(dp2502
g18
F0.5
sg19
I99
sg20
g0
(g21
g22
(dp2503
I00
I99
stp2504
Rp2505
(dp2506
g19
I99
sg27
Nsg28
Nsg29
Nsbsg30
I3
sg31
F100.5
sbs(g9
Vcontains(edge)
p2507
tp2508
g0
(g14
g2
Ntp2509
Rp2510
(dp2511
g18
F0.5
sg19
I71
sg20
g0
(g21
g22
(dp2512
I00
I59
sI01
I12
stp2513
Rp2514
(dp2515
g19
I71
sg27
Nsg28
Nsg29
Nsbsg30
I3
sg31
F72.5
sbs(g8
Vcontains(stuff)
p2516
tp2517
g0
(g14
g2
Ntp2518
Rp2519
(dp2520
g18
F0.5
sg19
I99
sg20
g0
(g21
g22
(dp2521
I00
I99
stp2522
Rp2523
(dp2524
g19
I99
sg27
Nsg28
Nsg29
Nsbsg30
I3
sg31
F100.5
sbs(g8
Vcontains(spinning)
p2525
tp2526
g0
(g14
g2
Ntp2527
Rp2528
(dp2529
g18
F0.5
sg19
I99
sg20
g0
(g21
g22
(dp2530
I00
I98
sI01
I1
stp2531
Rp2532
(dp2533
g19
I99
sg27
Nsg28
Nsg29
Nsbsg30
I3
sg31
F100.5
sbs(g9
Vcontains(usually)
p2534
tp2535
g0
(g14
g2
Ntp2536
Rp2537
(dp2538
g18
F0.5
sg19
I71
sg20
g0
(g21
g22
(dp2539
I00
I70
sI01
I1
stp2540
Rp2541
(dp2542
g19
I71
sg27
Nsg28
Nsg29
Nsbsg30
I3
sg31
F72.5
sbs(g8
Vcontains(btw)
p2543
tp2544
g0
(g14
g2
Ntp2545
Rp2546
(dp2547
g18
F0.5
sg19
I99
sg20
g0
(g21
g22
(dp2548
I00
I99
stp2549
Rp2550
(dp2551
g19
I99
sg27
Nsg28
Nsg29
Nsbsg30
I3
sg31
F100.5
sbs(g9
Vcontains(tomor)
p2552
tp2553
g0
(g14
g2
Ntp2554
Rp2555
(dp2556
g18
F0.5
sg19
I71
sg20
g0
(g21
g22
(dp2557
I00
I70
sI01
I1
stp2558
Rp2559
(dp2560
g19
I71
sg27
Nsg28
Nsg29
Nsbsg30
I3
sg31
F72.5
sbs(g9
Vcontains(criminal)
p2561
tp2562
g0
(g14
g2
Ntp2563
Rp2564
(dp2565
g18
F0.5
sg19
I71
sg20
g0
(g21
g22
(dp2566
I00
I69
sI01
I2
stp2567
Rp2568
(dp2569
g19
I71
sg27
Nsg28
Nsg29
Nsbsg30
I3
sg31
F72.5
sbs(g9
Vcontains(controversy)
p2570
tp2571
g0
(g14
g2
Ntp2572
Rp2573
(dp2574
g18
F0.5
sg19
I71
sg20
g0
(g21
g22
(dp2575
I00
I71
stp2576
Rp2577
(dp2578
g19
I71
sg27
Nsg28
Nsg29
Nsbsg30
I3
sg31
F72.5
sbs(g9
Vcontains(afghan)
p2579
tp2580
g0
(g14
g2
Ntp2581
Rp2582
(dp2583
g18
F0.5
sg19
I71
sg20
g0
(g21
g22
(dp2584
I00
I70
sI01
I1
stp2585
Rp2586
(dp2587
g19
I71
sg27
Nsg28
Nsg29
Nsbsg30
I3
sg31
F72.5
sbs(g9
Vcontains(antis)
p2588
tp2589
g0
(g14
g2
Ntp2590
Rp2591
(dp2592
g18
F0.5
sg19
I71
sg20
g0
(g21
g22
(dp2593
I00
I70
sI01
I1
stp2594
Rp2595
(dp2596
g19
I71
sg27
Nsg28
Nsg29
Nsbsg30
I3
sg31
F72.5
sbs(g8
Vcontains(aggression)
p2597
tp2598
g0
(g14
g2
Ntp2599
Rp2600
(dp2601
g18
F0.5
sg19
I99
sg20
g0
(g21
g22
(dp2602
I00
I99
stp2603
Rp2604
(dp2605
g19
I99
sg27
Nsg28
Nsg29
Nsbsg30
I3
sg31
F100.5
sbs(g9
Vcontains(school)
p2606
tp2607
g0
(g14
g2
Ntp2608
Rp2609
(dp2610
g18
F0.5
sg19
I71
sg20
g0
(g21
g22
(dp2611
I00
I70
sI01
I1
stp2612
Rp2613
(dp2614
g19
I71
sg27
Nsg28
Nsg29
Nsbsg30
I3
sg31
F72.5
sbs(g8
Vcontains(mio)
p2615
tp2616
g0
(g14
g2
Ntp2617
Rp2618
(dp2619
g18
F0.5
sg19
I99
sg20
g0
(g21
g22
(dp2620
I00
I99
stp2621
Rp2622
(dp2623
g19
I99
sg27
Nsg28
Nsg29
Nsbsg30
I3
sg31
F100.5
sbs(g9
Vcontains(movie)
p2624
tp2625
g0
(g14
g2
Ntp2626
Rp2627
(dp2628
g18
F0.5
sg19
I71
sg20
g0
(g21
g22
(dp2629
I00
I71
stp2630
Rp2631
(dp2632
g19
I71
sg27
Nsg28
Nsg29
Nsbsg30
I3
sg31
F72.5
sbs(g8
Vcontains(chance)
p2633
tp2634
g0
(g14
g2
Ntp2635
Rp2636
(dp2637
g18
F0.5
sg19
I99
sg20
g0
(g21
g22
(dp2638
I00
I99
stp2639
Rp2640
(dp2641
g19
I99
sg27
Nsg28
Nsg29
Nsbsg30
I3
sg31
F100.5
sbs(g9
Vcontains(move)
p2642
tp2643
g0
(g14
g2
Ntp2644
Rp2645
(dp2646
g18
F0.5
sg19
I71
sg20
g0
(g21
g22
(dp2647
I00
I70
sI01
I1
stp2648
Rp2649
(dp2650
g19
I71
sg27
Nsg28
Nsg29
Nsbsg30
I3
sg31
F72.5
sbs(g8
Vcontains(nba2kmyteam)
p2651
tp2652
g0
(g14
g2
Ntp2653
Rp2654
(dp2655
g18
F0.5
sg19
I99
sg20
g0
(g21
g22
(dp2656
I00
I99
stp2657
Rp2658
(dp2659
g19
I99
sg27
Nsg28
Nsg29
Nsbsg30
I3
sg31
F100.5
sbs(g9
Vcontains(shower)
p2660
tp2661
g0
(g14
g2
Ntp2662
Rp2663
(dp2664
g18
F0.5
sg19
I71
sg20
g0
(g21
g22
(dp2665
I00
I71
stp2666
Rp2667
(dp2668
g19
I71
sg27
Nsg28
Nsg29
Nsbsg30
I3
sg31
F72.5
sbs(g9
Vcontains(chad)
p2669
tp2670
g0
(g14
g2
Ntp2671
Rp2672
(dp2673
g18
F0.5
sg19
I71
sg20
g0
(g21
g22
(dp2674
I00
I70
sI01
I1
stp2675
Rp2676
(dp2677
g19
I71
sg27
Nsg28
Nsg29
Nsbsg30
I3
sg31
F72.5
sbs(g8
Vcontains(ke)
p2678
tp2679
g0
(g14
g2
Ntp2680
Rp2681
(dp2682
g18
F0.5
sg19
I99
sg20
g0
(g21
g22
(dp2683
I00
I98
sI01
I1
stp2684
Rp2685
(dp2686
g19
I99
sg27
Nsg28
Nsg29
Nsbsg30
I3
sg31
F100.5
sbs(g9
Vcontains(me7ba)
p2687
tp2688
g0
(g14
g2
Ntp2689
Rp2690
(dp2691
g18
F0.5
sg19
I71
sg20
g0
(g21
g22
(dp2692
I00
I70
sI01
I1
stp2693
Rp2694
(dp2695
g19
I71
sg27
Nsg28
Nsg29
Nsbsg30
I3
sg31
F72.5
sbs(g8
Vcontains(mean)
p2696
tp2697
g0
(g14
g2
Ntp2698
Rp2699
(dp2700
g18
F0.5
sg19
I99
sg20
g0
(g21
g22
(dp2701
I00
I98
sI01
I1
stp2702
Rp2703
(dp2704
g19
I99
sg27
Nsg28
Nsg29
Nsbsg30
I3
sg31
F100.5
sbs(g9
Vcontains(seeing)
p2705
tp2706
g0
(g14
g2
Ntp2707
Rp2708
(dp2709
g18
F0.5
sg19
I71
sg20
g0
(g21
g22
(dp2710
I00
I71
stp2711
Rp2712
(dp2713
g19
I71
sg27
Nsg28
Nsg29
Nsbsg30
I3
sg31
F72.5
sbs(g9
Vcontains(community)
p2714
tp2715
g0
(g14
g2
Ntp2716
Rp2717
(dp2718
g18
F0.5
sg19
I71
sg20
g0
(g21
g22
(dp2719
I00
I70
sI01
I1
stp2720
Rp2721
(dp2722
g19
I71
sg27
Nsg28
Nsg29
Nsbsg30
I3
sg31
F72.5
sbs(g9
Vcontains(organize)
p2723
tp2724
g0
(g14
g2
Ntp2725
Rp2726
(dp2727
g18
F0.5
sg19
I71
sg20
g0
(g21
g22
(dp2728
I00
I70
sI01
I1
stp2729
Rp2730
(dp2731
g19
I71
sg27
Nsg28
Nsg29
Nsbsg30
I3
sg31
F72.5
sbs(g9
Vcontains(hazrat)
p2732
tp2733
g0
(g14
g2
Ntp2734
Rp2735
(dp2736
g18
F0.5
sg19
I71
sg20
g0
(g21
g22
(dp2737
I00
I71
stp2738
Rp2739
(dp2740
g19
I71
sg27
Nsg28
Nsg29
Nsbsg30
I3
sg31
F72.5
sbs(g9
Vcontains(followers)
p2741
tp2742
g0
(g14
g2
Ntp2743
Rp2744
(dp2745
g18
F0.5
sg19
I71
sg20
g0
(g21
g22
(dp2746
I00
I70
sI01
I1
stp2747
Rp2748
(dp2749
g19
I71
sg27
Nsg28
Nsg29
Nsbsg30
I3
sg31
F72.5
sbs(g8
Vcontains(regarding)
p2750
tp2751
g0
(g14
g2
Ntp2752
Rp2753
(dp2754
g18
F0.5
sg19
I99
sg20
g0
(g21
g22
(dp2755
I00
I97
sI01
I2
stp2756
Rp2757
(dp2758
g19
I99
sg27
Nsg28
Nsg29
Nsbsg30
I3
sg31
F100.5
sbs(g8
Vcontains(results)
p2759
tp2760
g0
(g14
g2
Ntp2761
Rp2762
(dp2763
g18
F0.5
sg19
I99
sg20
g0
(g21
g22
(dp2764
I00
I98
sI01
I1
stp2765
Rp2766
(dp2767
g19
I99
sg27
Nsg28
Nsg29
Nsbsg30
I3
sg31
F100.5
sbs(g9
Vcontains(chambers)
p2768
tp2769
g0
(g14
g2
Ntp2770
Rp2771
(dp2772
g18
F0.5
sg19
I71
sg20
g0
(g21
g22
(dp2773
I00
I71
stp2774
Rp2775
(dp2776
g19
I71
sg27
Nsg28
Nsg29
Nsbsg30
I3
sg31
F72.5
sbs(g8
Vcontains(yes)
p2777
tp2778
g0
(g14
g2
Ntp2779
Rp2780
(dp2781
g18
F0.5
sg19
I99
sg20
g0
(g21
g22
(dp2782
I00
I99
stp2783
Rp2784
(dp2785
g19
I99
sg27
Nsg28
Nsg29
Nsbsg30
I3
sg31
F100.5
sbs(g8
Vcontains(twinkhim)
p2786
tp2787
g0
(g14
g2
Ntp2788
Rp2789
(dp2790
g18
F0.5
sg19
I99
sg20
g0
(g21
g22
(dp2791
I00
I99
stp2792
Rp2793
(dp2794
g19
I99
sg27
Nsg28
Nsg29
Nsbsg30
I3
sg31
F100.5
sbs(g8
Vcontains(explore)
p2795
tp2796
g0
(g14
g2
Ntp2797
Rp2798
(dp2799
g18
F0.5
sg19
I99
sg20
g0
(g21
g22
(dp2800
I00
I99
stp2801
Rp2802
(dp2803
g19
I99
sg27
Nsg28
Nsg29
Nsbsg30
I3
sg31
F100.5
sbs(g8
Vcontains(gain)
p2804
tp2805
g0
(g14
g2
Ntp2806
Rp2807
(dp2808
g18
F0.5
sg19
I99
sg20
g0
(g21
g22
(dp2809
I00
I99
stp2810
Rp2811
(dp2812
g19
I99
sg27
Nsg28
Nsg29
Nsbsg30
I3
sg31
F100.5
sbs(g9
Vcontains(momineen)
p2813
tp2814
g0
(g14
g2
Ntp2815
Rp2816
(dp2817
g18
F0.5
sg19
I71
sg20
g0
(g21
g22
(dp2818
I00
I71
stp2819
Rp2820
(dp2821
g19
I71
sg27
Nsg28
Nsg29
Nsbsg30
I3
sg31
F72.5
sbs(g9
Vcontains(violated)
p2822
tp2823
g0
(g14
g2
Ntp2824
Rp2825
(dp2826
g18
F0.5
sg19
I71
sg20
g0
(g21
g22
(dp2827
I00
I70
sI01
I1
stp2828
Rp2829
(dp2830
g19
I71
sg27
Nsg28
Nsg29
Nsbsg30
I3
sg31
F72.5
sbs(g9
Vcontains(sindh)
p2831
tp2832
g0
(g14
g2
Ntp2833
Rp2834
(dp2835
g18
F0.5
sg19
I71
sg20
g0
(g21
g22
(dp2836
I00
I70
sI01
I1
stp2837
Rp2838
(dp2839
g19
I71
sg27
Nsg28
Nsg29
Nsbsg30
I3
sg31
F72.5
sbs(g8
Vcontains(sexy)
p2840
tp2841
g0
(g14
g2
Ntp2842
Rp2843
(dp2844
g18
F0.5
sg19
I99
sg20
g0
(g21
g22
(dp2845
I00
I98
sI01
I1
stp2846
Rp2847
(dp2848
g19
I99
sg27
Nsg28
Nsg29
Nsbsg30
I3
sg31
F100.5
sbs(g9
Vcontains(srwrw)
p2849
tp2850
g0
(g14
g2
Ntp2851
Rp2852
(dp2853
g18
F0.5
sg19
I71
sg20
g0
(g21
g22
(dp2854
I00
I71
stp2855
Rp2856
(dp2857
g19
I71
sg27
Nsg28
Nsg29
Nsbsg30
I3
sg31
F72.5
sbs(g8
Vcontains(learning)
p2858
tp2859
g0
(g14
g2
Ntp2860
Rp2861
(dp2862
g18
F0.5
sg19
I99
sg20
g0
(g21
g22
(dp2863
I00
I99
stp2864
Rp2865
(dp2866
g19
I99
sg27
Nsg28
Nsg29
Nsbsg30
I3
sg31
F100.5
sbs(g8
Vcontains(shy)
p2867
tp2868
g0
(g14
g2
Ntp2869
Rp2870
(dp2871
g18
F0.5
sg19
I99
sg20
g0
(g21
g22
(dp2872
I00
I98
sI01
I1
stp2873
Rp2874
(dp2875
g19
I99
sg27
Nsg28
Nsg29
Nsbsg30
I3
sg31
F100.5
sbs(g8
Vcontains(hate)
p2876
tp2877
g0
(g14
g2
Ntp2878
Rp2879
(dp2880
g18
F0.5
sg19
I99
sg20
g0
(g21
g22
(dp2881
I00
I98
sI01
I1
stp2882
Rp2883
(dp2884
g19
I99
sg27
Nsg28
Nsg29
Nsbsg30
I3
sg31
F100.5
sbs(g9
Vcontains(reading)
p2885
tp2886
g0
(g14
g2
Ntp2887
Rp2888
(dp2889
g18
F0.5
sg19
I71
sg20
g0
(g21
g22
(dp2890
I00
I70
sI01
I1
stp2891
Rp2892
(dp2893
g19
I71
sg27
Nsg28
Nsg29
Nsbsg30
I3
sg31
F72.5
sbs(g8
Vcontains(leaving)
p2894
tp2895
g0
(g14
g2
Ntp2896
Rp2897
(dp2898
g18
F0.5
sg19
I99
sg20
g0
(g21
g22
(dp2899
I00
I99
stp2900
Rp2901
(dp2902
g19
I99
sg27
Nsg28
Nsg29
Nsbsg30
I3
sg31
F100.5
sbs(g8
Vcontains(lmaoo)
p2903
tp2904
g0
(g14
g2
Ntp2905
Rp2906
(dp2907
g18
F0.5
sg19
I99
sg20
g0
(g21
g22
(dp2908
I00
I98
sI01
I1
stp2909
Rp2910
(dp2911
g19
I99
sg27
Nsg28
Nsg29
Nsbsg30
I3
sg31
F100.5
sbs(g9
Vcontains(fintan)
p2912
tp2913
g0
(g14
g2
Ntp2914
Rp2915
(dp2916
g18
F0.5
sg19
I71
sg20
g0
(g21
g22
(dp2917
I00
I70
sI01
I1
stp2918
Rp2919
(dp2920
g19
I71
sg27
Nsg28
Nsg29
Nsbsg30
I3
sg31
F72.5
sbs(g9
Vcontains(ha)
p2921
tp2922
g0
(g14
g2
Ntp2923
Rp2924
(dp2925
g18
F0.5
sg19
I71
sg20
g0
(g21
g22
(dp2926
I00
I71
stp2927
Rp2928
(dp2929
g19
I71
sg27
Nsg28
Nsg29
Nsbsg30
I3
sg31
F72.5
sbs(g8
Vcontains(boys)
p2930
tp2931
g0
(g14
g2
Ntp2932
Rp2933
(dp2934
g18
F0.5
sg19
I99
sg20
g0
(g21
g22
(dp2935
I00
I98
sI01
I1
stp2936
Rp2937
(dp2938
g19
I99
sg27
Nsg28
Nsg29
Nsbsg30
I3
sg31
F100.5
sbs(g8
Vcontains(oga)
p2939
tp2940
g0
(g14
g2
Ntp2941
Rp2942
(dp2943
g18
F0.5
sg19
I99
sg20
g0
(g21
g22
(dp2944
I00
I99
stp2945
Rp2946
(dp2947
g19
I99
sg27
Nsg28
Nsg29
Nsbsg30
I3
sg31
F100.5
sbs(g8
Vcontains(mein)
p2948
tp2949
g0
(g14
g2
Ntp2950
Rp2951
(dp2952
g18
F0.5
sg19
I99
sg20
g0
(g21
g22
(dp2953
I00
I98
sI01
I1
stp2954
Rp2955
(dp2956
g19
I99
sg27
Nsg28
Nsg29
Nsbsg30
I3
sg31
F100.5
sbs(g8
Vcontains(models)
p2957
tp2958
g0
(g14
g2
Ntp2959
Rp2960
(dp2961
g18
F0.5
sg19
I99
sg20
g0
(g21
g22
(dp2962
I00
I99
stp2963
Rp2964
(dp2965
g19
I99
sg27
Nsg28
Nsg29
Nsbsg30
I3
sg31
F100.5
sbs(g9
Vcontains(girl)
p2966
tp2967
g0
(g14
g2
Ntp2968
Rp2969
(dp2970
g18
F0.5
sg19
I71
sg20
g0
(g21
g22
(dp2971
I00
I70
sI01
I1
stp2972
Rp2973
(dp2974
g19
I71
sg27
Nsg28
Nsg29
Nsbsg30
I3
sg31
F72.5
sbs(g9
Vcontains(arsenal)
p2975
tp2976
g0
(g14
g2
Ntp2977
Rp2978
(dp2979
g18
F0.5
sg19
I71
sg20
g0
(g21
g22
(dp2980
I00
I70
sI01
I1
stp2981
Rp2982
(dp2983
g19
I71
sg27
Nsg28
Nsg29
Nsbsg30
I3
sg31
F72.5
sbs(g8
Vcontains(units)
p2984
tp2985
g0
(g14
g2
Ntp2986
Rp2987
(dp2988
g18
F0.5
sg19
I99
sg20
g0
(g21
g22
(dp2989
I00
I99
stp2990
Rp2991
(dp2992
g19
I99
sg27
Nsg28
Nsg29
Nsbsg30
I3
sg31
F100.5
sbs(g8
Vcontains(ymi)
p2993
tp2994
g0
(g14
g2
Ntp2995
Rp2996
(dp2997
g18
F0.5
sg19
I99
sg20
g0
(g21
g22
(dp2998
I00
I99
stp2999
Rp3000
(dp3001
g19
I99
sg27
Nsg28
Nsg29
Nsbsg30
I3
sg31
F100.5
sbs(g8
Vcontains(him)
p3002
tp3003
g0
(g14
g2
Ntp3004
Rp3005
(dp3006
g18
F0.5
sg19
I99
sg20
g0
(g21
g22
(dp3007
I00
I98
sI01
I1
stp3008
Rp3009
(dp3010
g19
I99
sg27
Nsg28
Nsg29
Nsbsg30
I3
sg31
F100.5
sbs(g9
Vcontains(news)
p3011
tp3012
g0
(g14
g2
Ntp3013
Rp3014
(dp3015
g18
F0.5
sg19
I71
sg20
g0
(g21
g22
(dp3016
I00
I71
stp3017
Rp3018
(dp3019
g19
I71
sg27
Nsg28
Nsg29
Nsbsg30
I3
sg31
F72.5
sbs(g8
Vcontains(responds)
p3020
tp3021
g0
(g14
g2
Ntp3022
Rp3023
(dp3024
g18
F0.5
sg19
I99
sg20
g0
(g21
g22
(dp3025
I00
I98
sI01
I1
stp3026
Rp3027
(dp3028
g19
I99
sg27
Nsg28
Nsg29
Nsbsg30
I3
sg31
F100.5
sbs(g9
Vcontains(getting)
p3029
tp3030
g0
(g14
g2
Ntp3031
Rp3032
(dp3033
g18
F0.5
sg19
I71
sg20
g0
(g21
g22
(dp3034
I00
I71
stp3035
Rp3036
(dp3037
g19
I71
sg27
Nsg28
Nsg29
Nsbsg30
I3
sg31
F72.5
sbs(g9
Vcontains(fucked)
p3038
tp3039
g0
(g14
g2
Ntp3040
Rp3041
(dp3042
g18
F0.5
sg19
I71
sg20
g0
(g21
g22
(dp3043
I00
I71
stp3044
Rp3045
(dp3046
g19
I71
sg27
Nsg28
Nsg29
Nsbsg30
I3
sg31
F72.5
sbs(g8
Vcontains(krpkab)
p3047
tp3048
g0
(g14
g2
Ntp3049
Rp3050
(dp3051
g18
F0.5
sg19
I99
sg20
g0
(g21
g22
(dp3052
I00
I98
sI01
I1
stp3053
Rp3054
(dp3055
g19
I99
sg27
Nsg28
Nsg29
Nsbsg30
I3
sg31
F100.5
sbs(g8
Vcontains(talaga)
p3056
tp3057
g0
(g14
g2
Ntp3058
Rp3059
(dp3060
g18
F0.5
sg19
I99
sg20
g0
(g21
g22
(dp3061
I00
I98
sI01
I1
stp3062
Rp3063
(dp3064
g19
I99
sg27
Nsg28
Nsg29
Nsbsg30
I3
sg31
F100.5
sbs(g8
Vcontains(pancakes)
p3065
tp3066
g0
(g14
g2
Ntp3067
Rp3068
(dp3069
g18
F0.5
sg19
I99
sg20
g0
(g21
g22
(dp3070
I00
I99
stp3071
Rp3072
(dp3073
g19
I99
sg27
Nsg28
Nsg29
Nsbsg30
I3
sg31
F100.5
sbs(g9
Vcontains(promotion)
p3074
tp3075
g0
(g14
g2
Ntp3076
Rp3077
(dp3078
g18
F0.5
sg19
I71
sg20
g0
(g21
g22
(dp3079
I00
I71
stp3080
Rp3081
(dp3082
g19
I71
sg27
Nsg28
Nsg29
Nsbsg30
I3
sg31
F72.5
sbs(g9
Vcontains(wont)
p3083
tp3084
g0
(g14
g2
Ntp3085
Rp3086
(dp3087
g18
F0.5
sg19
I71
sg20
g0
(g21
g22
(dp3088
I00
I70
sI01
I1
stp3089
Rp3090
(dp3091
g19
I71
sg27
Nsg28
Nsg29
Nsbsg30
I3
sg31
F72.5
sbs(g9
Vcontains(exampl)
p3092
tp3093
g0
(g14
g2
Ntp3094
Rp3095
(dp3096
g18
F0.5
sg19
I71
sg20
g0
(g21
g22
(dp3097
I00
I70
sI01
I1
stp3098
Rp3099
(dp3100
g19
I71
sg27
Nsg28
Nsg29
Nsbsg30
I3
sg31
F72.5
sbs(g8
Vcontains(wan)
p3101
tp3102
g0
(g14
g2
Ntp3103
Rp3104
(dp3105
g18
F0.5
sg19
I99
sg20
g0
(g21
g22
(dp3106
I00
I98
sI01
I1
stp3107
Rp3108
(dp3109
g19
I99
sg27
Nsg28
Nsg29
Nsbsg30
I3
sg31
F100.5
sbs(g8
Vcontains(brexit)
p3110
tp3111
g0
(g14
g2
Ntp3112
Rp3113
(dp3114
g18
F0.5
sg19
I99
sg20
g0
(g21
g22
(dp3115
I00
I98
sI01
I1
stp3116
Rp3117
(dp3118
g19
I99
sg27
Nsg28
Nsg29
Nsbsg30
I3
sg31
F100.5
sbs(g8
Vcontains(popular)
p3119
tp3120
g0
(g14
g2
Ntp3121
Rp3122
(dp3123
g18
F0.5
sg19
I99
sg20
g0
(g21
g22
(dp3124
I00
I98
sI01
I1
stp3125
Rp3126
(dp3127
g19
I99
sg27
Nsg28
Nsg29
Nsbsg30
I3
sg31
F100.5
sbs(g9
Vcontains(punjab)
p3128
tp3129
g0
(g14
g2
Ntp3130
Rp3131
(dp3132
g18
F0.5
sg19
I71
sg20
g0
(g21
g22
(dp3133
I00
I70
sI01
I1
stp3134
Rp3135
(dp3136
g19
I71
sg27
Nsg28
Nsg29
Nsbsg30
I3
sg31
F72.5
sbs(g9
Vcontains(date)
p3137
tp3138
g0
(g14
g2
Ntp3139
Rp3140
(dp3141
g18
F0.5
sg19
I71
sg20
g0
(g21
g22
(dp3142
I00
I70
sI01
I1
stp3143
Rp3144
(dp3145
g19
I71
sg27
Nsg28
Nsg29
Nsbsg30
I3
sg31
F72.5
sbs(g8
Vcontains(walk)
p3146
tp3147
g0
(g14
g2
Ntp3148
Rp3149
(dp3150
g18
F0.5
sg19
I99
sg20
g0
(g21
g22
(dp3151
I00
I98
sI01
I1
stp3152
Rp3153
(dp3154
g19
I99
sg27
Nsg28
Nsg29
Nsbsg30
I3
sg31
F100.5
sbs(g8
Vcontains(style)
p3155
tp3156
g0
(g14
g2
Ntp3157
Rp3158
(dp3159
g18
F0.5
sg19
I99
sg20
g0
(g21
g22
(dp3160
I00
I97
sI01
I2
stp3161
Rp3162
(dp3163
g19
I99
sg27
Nsg28
Nsg29
Nsbsg30
I3
sg31
F100.5
sbs(g9
Vcontains(cute)
p3164
tp3165
g0
(g14
g2
Ntp3166
Rp3167
(dp3168
g18
F0.5
sg19
I71
sg20
g0
(g21
g22
(dp3169
I00
I70
sI01
I1
stp3170
Rp3171
(dp3172
g19
I71
sg27
Nsg28
Nsg29
Nsbsg30
I3
sg31
F72.5
sbs(g8
Vcontains(bts)
p3173
tp3174
g0
(g14
g2
Ntp3175
Rp3176
(dp3177
g18
F0.5
sg19
I99
sg20
g0
(g21
g22
(dp3178
I00
I97
sI01
I2
stp3179
Rp3180
(dp3181
g19
I99
sg27
Nsg28
Nsg29
Nsbsg30
I3
sg31
F100.5
sbs(g9
Vcontains(real)
p3182
tp3183
g0
(g14
g2
Ntp3184
Rp3185
(dp3186
g18
F0.5
sg19
I71
sg20
g0
(g21
g22
(dp3187
I00
I70
sI01
I1
stp3188
Rp3189
(dp3190
g19
I71
sg27
Nsg28
Nsg29
Nsbsg30
I3
sg31
F72.5
sbs(g8
Vcontains(firdaus)
p3191
tp3192
g0
(g14
g2
Ntp3193
Rp3194
(dp3195
g18
F0.5
sg19
I99
sg20
g0
(g21
g22
(dp3196
I00
I98
sI01
I1
stp3197
Rp3198
(dp3199
g19
I99
sg27
Nsg28
Nsg29
Nsbsg30
I3
sg31
F100.5
sbs(g8
Vcontains(problemi)
p3200
tp3201
g0
(g14
g2
Ntp3202
Rp3203
(dp3204
g18
F0.5
sg19
I99
sg20
g0
(g21
g22
(dp3205
I00
I99
stp3206
Rp3207
(dp3208
g19
I99
sg27
Nsg28
Nsg29
Nsbsg30
I3
sg31
F100.5
sbs(g9
Vcontains(tuesday)
p3209
tp3210
g0
(g14
g2
Ntp3211
Rp3212
(dp3213
g18
F0.5
sg19
I71
sg20
g0
(g21
g22
(dp3214
I00
I71
stp3215
Rp3216
(dp3217
g19
I71
sg27
Nsg28
Nsg29
Nsbsg30
I3
sg31
F72.5
sbs(g8
Vcontains(videos)
p3218
tp3219
g0
(g14
g2
Ntp3220
Rp3221
(dp3222
g18
F0.5
sg19
I99
sg20
g0
(g21
g22
(dp3223
I00
I98
sI01
I1
stp3224
Rp3225
(dp3226
g19
I99
sg27
Nsg28
Nsg29
Nsbsg30
I3
sg31
F100.5
sbs(g9
Vcontains(increased)
p3227
tp3228
g0
(g14
g2
Ntp3229
Rp3230
(dp3231
g18
F0.5
sg19
I71
sg20
g0
(g21
g22
(dp3232
I00
I71
stp3233
Rp3234
(dp3235
g19
I71
sg27
Nsg28
Nsg29
Nsbsg30
I3
sg31
F72.5
sbs(g9
Vcontains(regarding)
p3236
tp3237
g0
(g14
g2
Ntp3238
Rp3239
(dp3240
g18
F0.5
sg19
I71
sg20
g0
(g21
g22
(dp3241
I00
I71
stp3242
Rp3243
(dp3244
g19
I71
sg27
Nsg28
Nsg29
Nsbsg30
I3
sg31
F72.5
sbs(g9
Vcontains(tempting)
p3245
tp3246
g0
(g14
g2
Ntp3247
Rp3248
(dp3249
g18
F0.5
sg19
I71
sg20
g0
(g21
g22
(dp3250
I00
I59
sI01
I12
stp3251
Rp3252
(dp3253
g19
I71
sg27
Nsg28
Nsg29
Nsbsg30
I3
sg31
F72.5
sbs(g9
Vcontains(name)
p3254
tp3255
g0
(g14
g2
Ntp3256
Rp3257
(dp3258
g18
F0.5
sg19
I71
sg20
g0
(g21
g22
(dp3259
I00
I70
sI01
I1
stp3260
Rp3261
(dp3262
g19
I71
sg27
Nsg28
Nsg29
Nsbsg30
I3
sg31
F72.5
sbs(g9
Vcontains(painting)
p3263
tp3264
g0
(g14
g2
Ntp3265
Rp3266
(dp3267
g18
F0.5
sg19
I71
sg20
g0
(g21
g22
(dp3268
I00
I71
stp3269
Rp3270
(dp3271
g19
I71
sg27
Nsg28
Nsg29
Nsbsg30
I3
sg31
F72.5
sbs(g9
Vcontains(cr)
p3272
tp3273
g0
(g14
g2
Ntp3274
Rp3275
(dp3276
g18
F0.5
sg19
I71
sg20
g0
(g21
g22
(dp3277
I00
I71
stp3278
Rp3279
(dp3280
g19
I71
sg27
Nsg28
Nsg29
Nsbsg30
I3
sg31
F72.5
sbs(g9
Vcontains(bears)
p3281
tp3282
g0
(g14
g2
Ntp3283
Rp3284
(dp3285
g18
F0.5
sg19
I71
sg20
g0
(g21
g22
(dp3286
I00
I71
stp3287
Rp3288
(dp3289
g19
I71
sg27
Nsg28
Nsg29
Nsbsg30
I3
sg31
F72.5
sbs(g9
Vcontains(log)
p3290
tp3291
g0
(g14
g2
Ntp3292
Rp3293
(dp3294
g18
F0.5
sg19
I71
sg20
g0
(g21
g22
(dp3295
I00
I71
stp3296
Rp3297
(dp3298
g19
I71
sg27
Nsg28
Nsg29
Nsbsg30
I3
sg31
F72.5
sbs(g8
Vcontains(millions)
p3299
tp3300
g0
(g14
g2
Ntp3301
Rp3302
(dp3303
g18
F0.5
sg19
I99
sg20
g0
(g21
g22
(dp3304
I00
I99
stp3305
Rp3306
(dp3307
g19
I99
sg27
Nsg28
Nsg29
Nsbsg30
I3
sg31
F100.5
sbs(g9
Vcontains(please)
p3308
tp3309
g0
(g14
g2
Ntp3310
Rp3311
(dp3312
g18
F0.5
sg19
I71
sg20
g0
(g21
g22
(dp3313
I00
I71
stp3314
Rp3315
(dp3316
g19
I71
sg27
Nsg28
Nsg29
Nsbsg30
I3
sg31
F72.5
sbs(g8
Vcontains(journalistic)
p3317
tp3318
g0
(g14
g2
Ntp3319
Rp3320
(dp3321
g18
F0.5
sg19
I99
sg20
g0
(g21
g22
(dp3322
I00
I99
stp3323
Rp3324
(dp3325
g19
I99
sg27
Nsg28
Nsg29
Nsbsg30
I3
sg31
F100.5
sbs(g8
Vcontains(counselor)
p3326
tp3327
g0
(g14
g2
Ntp3328
Rp3329
(dp3330
g18
F0.5
sg19
I99
sg20
g0
(g21
g22
(dp3331
I00
I99
stp3332
Rp3333
(dp3334
g19
I99
sg27
Nsg28
Nsg29
Nsbsg30
I3
sg31
F100.5
sbs(g8
Vcontains(lifeatcapgemini)
p3335
tp3336
g0
(g14
g2
Ntp3337
Rp3338
(dp3339
g18
F0.5
sg19
I99
sg20
g0
(g21
g22
(dp3340
I00
I98
sI01
I1
stp3341
Rp3342
(dp3343
g19
I99
sg27
Nsg28
Nsg29
Nsbsg30
I3
sg31
F100.5
sbs(g9
Vcontains(president)
p3344
tp3345
g0
(g14
g2
Ntp3346
Rp3347
(dp3348
g18
F0.5
sg19
I71
sg20
g0
(g21
g22
(dp3349
I00
I70
sI01
I1
stp3350
Rp3351
(dp3352
g19
I71
sg27
Nsg28
Nsg29
Nsbsg30
I3
sg31
F72.5
sbs(g8
Vcontains(tablets)
p3353
tp3354
g0
(g14
g2
Ntp3355
Rp3356
(dp3357
g18
F0.5
sg19
I99
sg20
g0
(g21
g22
(dp3358
I00
I99
stp3359
Rp3360
(dp3361
g19
I99
sg27
Nsg28
Nsg29
Nsbsg30
I3
sg31
F100.5
sbs(g9
Vcontains(dying)
p3362
tp3363
g0
(g14
g2
Ntp3364
Rp3365
(dp3366
g18
F0.5
sg19
I71
sg20
g0
(g21
g22
(dp3367
I00
I71
stp3368
Rp3369
(dp3370
g19
I71
sg27
Nsg28
Nsg29
Nsbsg30
I3
sg31
F72.5
sbs(g9
Vcontains(stop)
p3371
tp3372
g0
(g14
g2
Ntp3373
Rp3374
(dp3375
g18
F0.5
sg19
I71
sg20
g0
(g21
g22
(dp3376
I00
I71
stp3377
Rp3378
(dp3379
g19
I71
sg27
Nsg28
Nsg29
Nsbsg30
I3
sg31
F72.5
sbs(g9
Vcontains(using)
p3380
tp3381
g0
(g14
g2
Ntp3382
Rp3383
(dp3384
g18
F0.5
sg19
I71
sg20
g0
(g21
g22
(dp3385
I00
I70
sI01
I1
stp3386
Rp3387
(dp3388
g19
I71
sg27
Nsg28
Nsg29
Nsbsg30
I3
sg31
F72.5
sbs(g9
Vcontains(miss)
p3389
tp3390
g0
(g14
g2
Ntp3391
Rp3392
(dp3393
g18
F0.5
sg19
I71
sg20
g0
(g21
g22
(dp3394
I00
I70
sI01
I1
stp3395
Rp3396
(dp3397
g19
I71
sg27
Nsg28
Nsg29
Nsbsg30
I3
sg31
F72.5
sbs(g8
Vcontains(fun)
p3398
tp3399
g0
(g14
g2
Ntp3400
Rp3401
(dp3402
g18
F0.5
sg19
I99
sg20
g0
(g21
g22
(dp3403
I00
I99
stp3404
Rp3405
(dp3406
g19
I99
sg27
Nsg28
Nsg29
Nsbsg30
I3
sg31
F100.5
sbs(g8
Vcontains(donald)
p3407
tp3408
g0
(g14
g2
Ntp3409
Rp3410
(dp3411
g18
F0.5
sg19
I99
sg20
g0
(g21
g22
(dp3412
I00
I99
stp3413
Rp3414
(dp3415
g19
I99
sg27
Nsg28
Nsg29
Nsbsg30
I3
sg31
F100.5
sbs(g9
Vcontains(resort)
p3416
tp3417
g0
(g14
g2
Ntp3418
Rp3419
(dp3420
g18
F0.5
sg19
I71
sg20
g0
(g21
g22
(dp3421
I00
I59
sI01
I12
stp3422
Rp3423
(dp3424
g19
I71
sg27
Nsg28
Nsg29
Nsbsg30
I3
sg31
F72.5
sbs(g8
Vcontains(leyk)
p3425
tp3426
g0
(g14
g2
Ntp3427
Rp3428
(dp3429
g18
F0.5
sg19
I99
sg20
g0
(g21
g22
(dp3430
I00
I98
sI01
I1
stp3431
Rp3432
(dp3433
g19
I99
sg27
Nsg28
Nsg29
Nsbsg30
I3
sg31
F100.5
sbs(g9
Vcontains(pier)
p3434
tp3435
g0
(g14
g2
Ntp3436
Rp3437
(dp3438
g18
F0.5
sg19
I71
sg20
g0
(g21
g22
(dp3439
I00
I70
sI01
I1
stp3440
Rp3441
(dp3442
g19
I71
sg27
Nsg28
Nsg29
Nsbsg30
I3
sg31
F72.5
sbs(g8
Vcontains(apne)
p3443
tp3444
g0
(g14
g2
Ntp3445
Rp3446
(dp3447
g18
F0.5
sg19
I99
sg20
g0
(g21
g22
(dp3448
I00
I98
sI01
I1
stp3449
Rp3450
(dp3451
g19
I99
sg27
Nsg28
Nsg29
Nsbsg30
I3
sg31
F100.5
sbs(g9
Vcontains(post)
p3452
tp3453
g0
(g14
g2
Ntp3454
Rp3455
(dp3456
g18
F0.5
sg19
I71
sg20
g0
(g21
g22
(dp3457
I00
I70
sI01
I1
stp3458
Rp3459
(dp3460
g19
I71
sg27
Nsg28
Nsg29
Nsbsg30
I3
sg31
F72.5
sbs(g8
Vcontains(filming)
p3461
tp3462
g0
(g14
g2
Ntp3463
Rp3464
(dp3465
g18
F0.5
sg19
I99
sg20
g0
(g21
g22
(dp3466
I00
I97
sI01
I2
stp3467
Rp3468
(dp3469
g19
I99
sg27
Nsg28
Nsg29
Nsbsg30
I3
sg31
F100.5
sbs(g9
Vcontains(wander)
p3470
tp3471
g0
(g14
g2
Ntp3472
Rp3473
(dp3474
g18
F0.5
sg19
I71
sg20
g0
(g21
g22
(dp3475
I00
I70
sI01
I1
stp3476
Rp3477
(dp3478
g19
I71
sg27
Nsg28
Nsg29
Nsbsg30
I3
sg31
F72.5
sbs(g8
Vcontains(kpk)
p3479
tp3480
g0
(g14
g2
Ntp3481
Rp3482
(dp3483
g18
F0.5
sg19
I99
sg20
g0
(g21
g22
(dp3484
I00
I99
stp3485
Rp3486
(dp3487
g19
I99
sg27
Nsg28
Nsg29
Nsbsg30
I3
sg31
F100.5
sbs(g8
Vcontains(dey)
p3488
tp3489
g0
(g14
g2
Ntp3490
Rp3491
(dp3492
g18
F0.5
sg19
I99
sg20
g0
(g21
g22
(dp3493
I00
I98
sI01
I1
stp3494
Rp3495
(dp3496
g19
I99
sg27
Nsg28
Nsg29
Nsbsg30
I3
sg31
F100.5
sbs(g9
Vcontains(twinks)
p3497
tp3498
g0
(g14
g2
Ntp3499
Rp3500
(dp3501
g18
F0.5
sg19
I71
sg20
g0
(g21
g22
(dp3502
I00
I70
sI01
I1
stp3503
Rp3504
(dp3505
g19
I71
sg27
Nsg28
Nsg29
Nsbsg30
I3
sg31
F72.5
sbs(g8
Vcontains(alan)
p3506
tp3507
g0
(g14
g2
Ntp3508
Rp3509
(dp3510
g18
F0.5
sg19
I99
sg20
g0
(g21
g22
(dp3511
I00
I98
sI01
I1
stp3512
Rp3513
(dp3514
g19
I99
sg27
Nsg28
Nsg29
Nsbsg30
I3
sg31
F100.5
sbs(g8
Vcontains(save)
p3515
tp3516
g0
(g14
g2
Ntp3517
Rp3518
(dp3519
g18
F0.5
sg19
I99
sg20
g0
(g21
g22
(dp3520
I00
I99
stp3521
Rp3522
(dp3523
g19
I99
sg27
Nsg28
Nsg29
Nsbsg30
I3
sg31
F100.5
sbs(g9
Vcontains(arc)
p3524
tp3525
g0
(g14
g2
Ntp3526
Rp3527
(dp3528
g18
F0.5
sg19
I71
sg20
g0
(g21
g22
(dp3529
I00
I70
sI01
I1
stp3530
Rp3531
(dp3532
g19
I71
sg27
Nsg28
Nsg29
Nsbsg30
I3
sg31
F72.5
sbs(g8
Vcontains(newsroom)
p3533
tp3534
g0
(g14
g2
Ntp3535
Rp3536
(dp3537
g18
F0.5
sg19
I99
sg20
g0
(g21
g22
(dp3538
I00
I97
sI01
I2
stp3539
Rp3540
(dp3541
g19
I99
sg27
Nsg28
Nsg29
Nsbsg30
I3
sg31
F100.5
sbs(g9
Vcontains(sab)
p3542
tp3543
g0
(g14
g2
Ntp3544
Rp3545
(dp3546
g18
F0.5
sg19
I71
sg20
g0
(g21
g22
(dp3547
I00
I71
stp3548
Rp3549
(dp3550
g19
I71
sg27
Nsg28
Nsg29
Nsbsg30
I3
sg31
F72.5
sbs(g9
Vcontains(tax)
p3551
tp3552
g0
(g14
g2
Ntp3553
Rp3554
(dp3555
g18
F0.5
sg19
I71
sg20
g0
(g21
g22
(dp3556
I00
I70
sI01
I1
stp3557
Rp3558
(dp3559
g19
I71
sg27
Nsg28
Nsg29
Nsbsg30
I3
sg31
F72.5
sbs(g8
Vcontains(reveal)
p3560
tp3561
g0
(g14
g2
Ntp3562
Rp3563
(dp3564
g18
F0.5
sg19
I99
sg20
g0
(g21
g22
(dp3565
I00
I97
sI01
I2
stp3566
Rp3567
(dp3568
g19
I99
sg27
Nsg28
Nsg29
Nsbsg30
I3
sg31
F100.5
sbs(g9
Vcontains(class)
p3569
tp3570
g0
(g14
g2
Ntp3571
Rp3572
(dp3573
g18
F0.5
sg19
I71
sg20
g0
(g21
g22
(dp3574
I00
I70
sI01
I1
stp3575
Rp3576
(dp3577
g19
I71
sg27
Nsg28
Nsg29
Nsbsg30
I3
sg31
F72.5
sbs(g9
Vcontains(wait)
p3578
tp3579
g0
(g14
g2
Ntp3580
Rp3581
(dp3582
g18
F0.5
sg19
I71
sg20
g0
(g21
g22
(dp3583
I00
I69
sI01
I2
stp3584
Rp3585
(dp3586
g19
I71
sg27
Nsg28
Nsg29
Nsbsg30
I3
sg31
F72.5
sbs(g9
Vcontains(feels)
p3587
tp3588
g0
(g14
g2
Ntp3589
Rp3590
(dp3591
g18
F0.5
sg19
I71
sg20
g0
(g21
g22
(dp3592
I00
I71
stp3593
Rp3594
(dp3595
g19
I71
sg27
Nsg28
Nsg29
Nsbsg30
I3
sg31
F72.5
sbs(g8
Vcontains(edited)
p3596
tp3597
g0
(g14
g2
Ntp3598
Rp3599
(dp3600
g18
F0.5
sg19
I99
sg20
g0
(g21
g22
(dp3601
I00
I98
sI01
I1
stp3602
Rp3603
(dp3604
g19
I99
sg27
Nsg28
Nsg29
Nsbsg30
I3
sg31
F100.5
sbs(g8
Vcontains(weekend)
p3605
tp3606
g0
(g14
g2
Ntp3607
Rp3608
(dp3609
g18
F0.5
sg19
I99
sg20
g0
(g21
g22
(dp3610
I00
I98
sI01
I1
stp3611
Rp3612
(dp3613
g19
I99
sg27
Nsg28
Nsg29
Nsbsg30
I3
sg31
F100.5
sbs(g8
Vcontains(se)
p3614
tp3615
g0
(g14
g2
Ntp3616
Rp3617
(dp3618
g18
F0.5
sg19
I99
sg20
g0
(g21
g22
(dp3619
I00
I98
sI01
I1
stp3620
Rp3621
(dp3622
g19
I99
sg27
Nsg28
Nsg29
Nsbsg30
I3
sg31
F100.5
sbs(g8
Vcontains(thetwinks)
p3623
tp3624
g0
(g14
g2
Ntp3625
Rp3626
(dp3627
g18
F0.5
sg19
I99
sg20
g0
(g21
g22
(dp3628
I00
I99
stp3629
Rp3630
(dp3631
g19
I99
sg27
Nsg28
Nsg29
Nsbsg30
I3
sg31
F100.5
sbs(g9
Vcontains(leads)
p3632
tp3633
g0
(g14
g2
Ntp3634
Rp3635
(dp3636
g18
F0.5
sg19
I71
sg20
g0
(g21
g22
(dp3637
I00
I71
stp3638
Rp3639
(dp3640
g19
I71
sg27
Nsg28
Nsg29
Nsbsg30
I3
sg31
F72.5
sbs(g9
Vcontains(pink)
p3641
tp3642
g0
(g14
g2
Ntp3643
Rp3644
(dp3645
g18
F0.5
sg19
I71
sg20
g0
(g21
g22
(dp3646
I00
I71
stp3647
Rp3648
(dp3649
g19
I71
sg27
Nsg28
Nsg29
Nsbsg30
I3
sg31
F72.5
sbs(g8
Vcontains(senior)
p3650
tp3651
g0
(g14
g2
Ntp3652
Rp3653
(dp3654
g18
F0.5
sg19
I99
sg20
g0
(g21
g22
(dp3655
I00
I99
stp3656
Rp3657
(dp3658
g19
I99
sg27
Nsg28
Nsg29
Nsbsg30
I3
sg31
F100.5
sbs(g8
Vcontains(leaks)
p3659
tp3660
g0
(g14
g2
Ntp3661
Rp3662
(dp3663
g18
F0.5
sg19
I99
sg20
g0
(g21
g22
(dp3664
I00
I98
sI01
I1
stp3665
Rp3666
(dp3667
g19
I99
sg27
Nsg28
Nsg29
Nsbsg30
I3
sg31
F100.5
sbs(g8
Vcontains(james)
p3668
tp3669
g0
(g14
g2
Ntp3670
Rp3671
(dp3672
g18
F0.5
sg19
I99
sg20
g0
(g21
g22
(dp3673
I00
I97
sI01
I2
stp3674
Rp3675
(dp3676
g19
I99
sg27
Nsg28
Nsg29
Nsbsg30
I3
sg31
F100.5
sbs(g8
Vcontains(gaining)
p3677
tp3678
g0
(g14
g2
Ntp3679
Rp3680
(dp3681
g18
F0.5
sg19
I99
sg20
g0
(g21
g22
(dp3682
I00
I99
stp3683
Rp3684
(dp3685
g19
I99
sg27
Nsg28
Nsg29
Nsbsg30
I3
sg31
F100.5
sbs(g9
Vcontains(fake)
p3686
tp3687
g0
(g14
g2
Ntp3688
Rp3689
(dp3690
g18
F0.5
sg19
I71
sg20
g0
(g21
g22
(dp3691
I00
I71
stp3692
Rp3693
(dp3694
g19
I71
sg27
Nsg28
Nsg29
Nsbsg30
I3
sg31
F72.5
sbs(g9
Vcontains(visual)
p3695
tp3696
g0
(g14
g2
Ntp3697
Rp3698
(dp3699
g18
F0.5
sg19
I71
sg20
g0
(g21
g22
(dp3700
I00
I70
sI01
I1
stp3701
Rp3702
(dp3703
g19
I71
sg27
Nsg28
Nsg29
Nsbsg30
I3
sg31
F72.5
sbs(g8
Vcontains(wanna)
p3704
tp3705
g0
(g14
g2
Ntp3706
Rp3707
(dp3708
g18
F0.5
sg19
I99
sg20
g0
(g21
g22
(dp3709
I00
I98
sI01
I1
stp3710
Rp3711
(dp3712
g19
I99
sg27
Nsg28
Nsg29
Nsbsg30
I3
sg31
F100.5
sbs(g9
Vcontains(forgot)
p3713
tp3714
g0
(g14
g2
Ntp3715
Rp3716
(dp3717
g18
F0.5
sg19
I71
sg20
g0
(g21
g22
(dp3718
I00
I71
stp3719
Rp3720
(dp3721
g19
I71
sg27
Nsg28
Nsg29
Nsbsg30
I3
sg31
F72.5
sbs(g9
Vcontains(lost)
p3722
tp3723
g0
(g14
g2
Ntp3724
Rp3725
(dp3726
g18
F0.5
sg19
I71
sg20
g0
(g21
g22
(dp3727
I00
I71
stp3728
Rp3729
(dp3730
g19
I71
sg27
Nsg28
Nsg29
Nsbsg30
I3
sg31
F72.5
sbs(g9
Vcontains(night)
p3731
tp3732
g0
(g14
g2
Ntp3733
Rp3734
(dp3735
g18
F0.5
sg19
I71
sg20
g0
(g21
g22
(dp3736
I00
I71
stp3737
Rp3738
(dp3739
g19
I71
sg27
Nsg28
Nsg29
Nsbsg30
I3
sg31
F72.5
sbs(g8
Vcontains(shower)
p3740
tp3741
g0
(g14
g2
Ntp3742
Rp3743
(dp3744
g18
F0.5
sg19
I99
sg20
g0
(g21
g22
(dp3745
I00
I96
sI01
I3
stp3746
Rp3747
(dp3748
g19
I99
sg27
Nsg28
Nsg29
Nsbsg30
I3
sg31
F100.5
sbs(g9
Vcontains(lake)
p3749
tp3750
g0
(g14
g2
Ntp3751
Rp3752
(dp3753
g18
F0.5
sg19
I71
sg20
g0
(g21
g22
(dp3754
I00
I70
sI01
I1
stp3755
Rp3756
(dp3757
g19
I71
sg27
Nsg28
Nsg29
Nsbsg30
I3
sg31
F72.5
sbs(g9
Vcontains(donald)
p3758
tp3759
g0
(g14
g2
Ntp3760
Rp3761
(dp3762
g18
F0.5
sg19
I71
sg20
g0
(g21
g22
(dp3763
I00
I70
sI01
I1
stp3764
Rp3765
(dp3766
g19
I71
sg27
Nsg28
Nsg29
Nsbsg30
I3
sg31
F72.5
sbs(g8
Vcontains(liberals)
p3767
tp3768
g0
(g14
g2
Ntp3769
Rp3770
(dp3771
g18
F0.5
sg19
I99
sg20
g0
(g21
g22
(dp3772
I00
I99
stp3773
Rp3774
(dp3775
g19
I99
sg27
Nsg28
Nsg29
Nsbsg30
I3
sg31
F100.5
sbs(g9
Vcontains(push)
p3776
tp3777
g0
(g14
g2
Ntp3778
Rp3779
(dp3780
g18
F0.5
sg19
I71
sg20
g0
(g21
g22
(dp3781
I00
I71
stp3782
Rp3783
(dp3784
g19
I71
sg27
Nsg28
Nsg29
Nsbsg30
I3
sg31
F72.5
sbs(g8
Vcontains(mom)
p3785
tp3786
g0
(g14
g2
Ntp3787
Rp3788
(dp3789
g18
F0.5
sg19
I99
sg20
g0
(g21
g22
(dp3790
I00
I96
sI01
I3
stp3791
Rp3792
(dp3793
g19
I99
sg27
Nsg28
Nsg29
Nsbsg30
I3
sg31
F100.5
sbs(g8
Vcontains(poor)
p3794
tp3795
g0
(g14
g2
Ntp3796
Rp3797
(dp3798
g18
F0.5
sg19
I99
sg20
g0
(g21
g22
(dp3799
I00
I98
sI01
I1
stp3800
Rp3801
(dp3802
g19
I99
sg27
Nsg28
Nsg29
Nsbsg30
I3
sg31
F100.5
sbs(g8
Vcontains(ireland)
p3803
tp3804
g0
(g14
g2
Ntp3805
Rp3806
(dp3807
g18
F0.5
sg19
I99
sg20
g0
(g21
g22
(dp3808
I00
I98
sI01
I1
stp3809
Rp3810
(dp3811
g19
I99
sg27
Nsg28
Nsg29
Nsbsg30
I3
sg31
F100.5
sbs(g8
Vcontains(center)
p3812
tp3813
g0
(g14
g2
Ntp3814
Rp3815
(dp3816
g18
F0.5
sg19
I99
sg20
g0
(g21
g22
(dp3817
I00
I99
stp3818
Rp3819
(dp3820
g19
I99
sg27
Nsg28
Nsg29
Nsbsg30
I3
sg31
F100.5
sbs(g8
Vcontains(bay)
p3821
tp3822
g0
(g14
g2
Ntp3823
Rp3824
(dp3825
g18
F0.5
sg19
I99
sg20
g0
(g21
g22
(dp3826
I00
I99
stp3827
Rp3828
(dp3829
g19
I99
sg27
Nsg28
Nsg29
Nsbsg30
I3
sg31
F100.5
sbs(g8
Vcontains(feel)
p3830
tp3831
g0
(g14
g2
Ntp3832
Rp3833
(dp3834
g18
F0.5
sg19
I99
sg20
g0
(g21
g22
(dp3835
I00
I99
stp3836
Rp3837
(dp3838
g19
I99
sg27
Nsg28
Nsg29
Nsbsg30
I3
sg31
F100.5
sbs(g9
Vcontains(sec)
p3839
tp3840
g0
(g14
g2
Ntp3841
Rp3842
(dp3843
g18
F0.5
sg19
I71
sg20
g0
(g21
g22
(dp3844
I00
I70
sI01
I1
stp3845
Rp3846
(dp3847
g19
I71
sg27
Nsg28
Nsg29
Nsbsg30
I3
sg31
F72.5
sbs(g9
Vcontains(balochistan)
p3848
tp3849
g0
(g14
g2
Ntp3850
Rp3851
(dp3852
g18
F0.5
sg19
I71
sg20
g0
(g21
g22
(dp3853
I00
I70
sI01
I1
stp3854
Rp3855
(dp3856
g19
I71
sg27
Nsg28
Nsg29
Nsbsg30
I3
sg31
F72.5
sbs(g9
Vcontains(comedy)
p3857
tp3858
g0
(g14
g2
Ntp3859
Rp3860
(dp3861
g18
F0.5
sg19
I71
sg20
g0
(g21
g22
(dp3862
I00
I70
sI01
I1
stp3863
Rp3864
(dp3865
g19
I71
sg27
Nsg28
Nsg29
Nsbsg30
I3
sg31
F72.5
sbs(g8
Vcontains(international)
p3866
tp3867
g0
(g14
g2
Ntp3868
Rp3869
(dp3870
g18
F0.5
sg19
I99
sg20
g0
(g21
g22
(dp3871
I00
I99
stp3872
Rp3873
(dp3874
g19
I99
sg27
Nsg28
Nsg29
Nsbsg30
I3
sg31
F100.5
sbs(g9
Vcontains(photo)
p3875
tp3876
g0
(g14
g2
Ntp3877
Rp3878
(dp3879
g18
F0.5
sg19
I71
sg20
g0
(g21
g22
(dp3880
I00
I71
stp3881
Rp3882
(dp3883
g19
I71
sg27
Nsg28
Nsg29
Nsbsg30
I3
sg31
F72.5
sbs(g8
Vcontains(yass)
p3884
tp3885
g0
(g14
g2
Ntp3886
Rp3887
(dp3888
g18
F0.5
sg19
I99
sg20
g0
(g21
g22
(dp3889
I00
I99
stp3890
Rp3891
(dp3892
g19
I99
sg27
Nsg28
Nsg29
Nsbsg30
I3
sg31
F100.5
sbs(g9
Vcontains(kaha)
p3893
tp3894
g0
(g14
g2
Ntp3895
Rp3896
(dp3897
g18
F0.5
sg19
I71
sg20
g0
(g21
g22
(dp3898
I00
I71
stp3899
Rp3900
(dp3901
g19
I71
sg27
Nsg28
Nsg29
Nsbsg30
I3
sg31
F72.5
sbs(g9
Vcontains(nba2kmyteam)
p3902
tp3903
g0
(g14
g2
Ntp3904
Rp3905
(dp3906
g18
F0.5
sg19
I71
sg20
g0
(g21
g22
(dp3907
I00
I70
sI01
I1
stp3908
Rp3909
(dp3910
g19
I71
sg27
Nsg28
Nsg29
Nsbsg30
I3
sg31
F72.5
sbs(g8
Vcontains(balst)
p3911
tp3912
g0
(g14
g2
Ntp3913
Rp3914
(dp3915
g18
F0.5
sg19
I99
sg20
g0
(g21
g22
(dp3916
I00
I99
stp3917
Rp3918
(dp3919
g19
I99
sg27
Nsg28
Nsg29
Nsbsg30
I3
sg31
F100.5
sbs(g8
Vcontains(girls)
p3920
tp3921
g0
(g14
g2
Ntp3922
Rp3923
(dp3924
g18
F0.5
sg19
I99
sg20
g0
(g21
g22
(dp3925
I00
I98
sI01
I1
stp3926
Rp3927
(dp3928
g19
I99
sg27
Nsg28
Nsg29
Nsbsg30
I3
sg31
F100.5
sbs(g8
Vcontains(true)
p3929
tp3930
g0
(g14
g2
Ntp3931
Rp3932
(dp3933
g18
F0.5
sg19
I99
sg20
g0
(g21
g22
(dp3934
I00
I98
sI01
I1
stp3935
Rp3936
(dp3937
g19
I99
sg27
Nsg28
Nsg29
Nsbsg30
I3
sg31
F100.5
sbs(g8
Vcontains(jagah)
p3938
tp3939
g0
(g14
g2
Ntp3940
Rp3941
(dp3942
g18
F0.5
sg19
I99
sg20
g0
(g21
g22
(dp3943
I00
I98
sI01
I1
stp3944
Rp3945
(dp3946
g19
I99
sg27
Nsg28
Nsg29
Nsbsg30
I3
sg31
F100.5
sbs(g8
Vcontains(attack)
p3947
tp3948
g0
(g14
g2
Ntp3949
Rp3950
(dp3951
g18
F0.5
sg19
I99
sg20
g0
(g21
g22
(dp3952
I00
I98
sI01
I1
stp3953
Rp3954
(dp3955
g19
I99
sg27
Nsg28
Nsg29
Nsbsg30
I3
sg31
F100.5
sbs(g8
Vcontains(travel)
p3956
tp3957
g0
(g14
g2
Ntp3958
Rp3959
(dp3960
g18
F0.5
sg19
I99
sg20
g0
(g21
g22
(dp3961
I00
I98
sI01
I1
stp3962
Rp3963
(dp3964
g19
I99
sg27
Nsg28
Nsg29
Nsbsg30
I3
sg31
F100.5
sbs(g8
Vcontains(lab)
p3965
tp3966
g0
(g14
g2
Ntp3967
Rp3968
(dp3969
g18
F0.5
sg19
I99
sg20
g0
(g21
g22
(dp3970
I00
I99
stp3971
Rp3972
(dp3973
g19
I99
sg27
Nsg28
Nsg29
Nsbsg30
I3
sg31
F100.5
sbs(g9
Vcontains(center)
p3974
tp3975
g0
(g14
g2
Ntp3976
Rp3977
(dp3978
g18
F0.5
sg19
I71
sg20
g0
(g21
g22
(dp3979
I00
I70
sI01
I1
stp3980
Rp3981
(dp3982
g19
I71
sg27
Nsg28
Nsg29
Nsbsg30
I3
sg31
F72.5
sbs(g8
Vcontains(knicks)
p3983
tp3984
g0
(g14
g2
Ntp3985
Rp3986
(dp3987
g18
F0.5
sg19
I99
sg20
g0
(g21
g22
(dp3988
I00
I99
stp3989
Rp3990
(dp3991
g19
I99
sg27
Nsg28
Nsg29
Nsbsg30
I3
sg31
F100.5
sbs(g9
Vcontains(person)
p3992
tp3993
g0
(g14
g2
Ntp3994
Rp3995
(dp3996
g18
F0.5
sg19
I71
sg20
g0
(g21
g22
(dp3997
I00
I70
sI01
I1
stp3998
Rp3999
(dp4000
g19
I71
sg27
Nsg28
Nsg29
Nsbsg30
I3
sg31
F72.5
sbs(g9
Vcontains(apne)
p4001
tp4002
g0
(g14
g2
Ntp4003
Rp4004
(dp4005
g18
F0.5
sg19
I71
sg20
g0
(g21
g22
(dp4006
I00
I71
stp4007
Rp4008
(dp4009
g19
I71
sg27
Nsg28
Nsg29
Nsbsg30
I3
sg31
F72.5
sbs(g9
Vcontains(office)
p4010
tp4011
g0
(g14
g2
Ntp4012
Rp4013
(dp4014
g18
F0.5
sg19
I71
sg20
g0
(g21
g22
(dp4015
I00
I70
sI01
I1
stp4016
Rp4017
(dp4018
g19
I71
sg27
Nsg28
Nsg29
Nsbsg30
I3
sg31
F72.5
sbs(g8
Vcontains(direct)
p4019
tp4020
g0
(g14
g2
Ntp4021
Rp4022
(dp4023
g18
F0.5
sg19
I99
sg20
g0
(g21
g22
(dp4024
I00
I98
sI01
I1
stp4025
Rp4026
(dp4027
g19
I99
sg27
Nsg28
Nsg29
Nsbsg30
I3
sg31
F100.5
sbs(g8
Vcontains(won)
p4028
tp4029
g0
(g14
g2
Ntp4030
Rp4031
(dp4032
g18
F0.5
sg19
I99
sg20
g0
(g21
g22
(dp4033
I00
I98
sI01
I1
stp4034
Rp4035
(dp4036
g19
I99
sg27
Nsg28
Nsg29
Nsbsg30
I3
sg31
F100.5
sbs(g9
Vcontains(mothers)
p4037
tp4038
g0
(g14
g2
Ntp4039
Rp4040
(dp4041
g18
F0.5
sg19
I71
sg20
g0
(g21
g22
(dp4042
I00
I71
stp4043
Rp4044
(dp4045
g19
I71
sg27
Nsg28
Nsg29
Nsbsg30
I3
sg31
F72.5
sbs(g9
Vcontains(thetwinks)
p4046
tp4047
g0
(g14
g2
Ntp4048
Rp4049
(dp4050
g18
F0.5
sg19
I71
sg20
g0
(g21
g22
(dp4051
I00
I70
sI01
I1
stp4052
Rp4053
(dp4054
g19
I71
sg27
Nsg28
Nsg29
Nsbsg30
I3
sg31
F72.5
sbs(g8
Vcontains(blue)
p4055
tp4056
g0
(g14
g2
Ntp4057
Rp4058
(dp4059
g18
F0.5
sg19
I99
sg20
g0
(g21
g22
(dp4060
I00
I98
sI01
I1
stp4061
Rp4062
(dp4063
g19
I99
sg27
Nsg28
Nsg29
Nsbsg30
I3
sg31
F100.5
sbs(g8
Vcontains(rosie)
p4064
tp4065
g0
(g14
g2
Ntp4066
Rp4067
(dp4068
g18
F0.5
sg19
I99
sg20
g0
(g21
g22
(dp4069
I00
I99
stp4070
Rp4071
(dp4072
g19
I99
sg27
Nsg28
Nsg29
Nsbsg30
I3
sg31
F100.5
sbs(g8
Vcontains(cnn)
p4073
tp4074
g0
(g14
g2
Ntp4075
Rp4076
(dp4077
g18
F0.5
sg19
I99
sg20
g0
(g21
g22
(dp4078
I00
I97
sI01
I2
stp4079
Rp4080
(dp4081
g19
I99
sg27
Nsg28
Nsg29
Nsbsg30
I3
sg31
F100.5
sbs(g9
Vcontains(remember)
p4082
tp4083
g0
(g14
g2
Ntp4084
Rp4085
(dp4086
g18
F0.5
sg19
I71
sg20
g0
(g21
g22
(dp4087
I00
I70
sI01
I1
stp4088
Rp4089
(dp4090
g19
I71
sg27
Nsg28
Nsg29
Nsbsg30
I3
sg31
F72.5
sbs(g9
Vcontains(clock)
p4091
tp4092
g0
(g14
g2
Ntp4093
Rp4094
(dp4095
g18
F0.5
sg19
I71
sg20
g0
(g21
g22
(dp4096
I00
I71
stp4097
Rp4098
(dp4099
g19
I71
sg27
Nsg28
Nsg29
Nsbsg30
I3
sg31
F72.5
sbs(g8
Vcontains(sugaboy)
p4100
tp4101
g0
(g14
g2
Ntp4102
Rp4103
(dp4104
g18
F0.5
sg19
I99
sg20
g0
(g21
g22
(dp4105
I00
I99
stp4106
Rp4107
(dp4108
g19
I99
sg27
Nsg28
Nsg29
Nsbsg30
I3
sg31
F100.5
sbs(g9
Vcontains(journalistic)
p4109
tp4110
g0
(g14
g2
Ntp4111
Rp4112
(dp4113
g18
F0.5
sg19
I71
sg20
g0
(g21
g22
(dp4114
I00
I70
sI01
I1
stp4115
Rp4116
(dp4117
g19
I71
sg27
Nsg28
Nsg29
Nsbsg30
I3
sg31
F72.5
sbs(g9
Vcontains(jus)
p4118
tp4119
g0
(g14
g2
Ntp4120
Rp4121
(dp4122
g18
F0.5
sg19
I71
sg20
g0
(g21
g22
(dp4123
I00
I70
sI01
I1
stp4124
Rp4125
(dp4126
g19
I71
sg27
Nsg28
Nsg29
Nsbsg30
I3
sg31
F72.5
sbs(g8
Vcontains(rebound)
p4127
tp4128
g0
(g14
g2
Ntp4129
Rp4130
(dp4131
g18
F0.5
sg19
I99
sg20
g0
(g21
g22
(dp4132
I00
I98
sI01
I1
stp4133
Rp4134
(dp4135
g19
I99
sg27
Nsg28
Nsg29
Nsbsg30
I3
sg31
F100.5
sbs(g9
Vcontains(marhoom)
p4136
tp4137
g0
(g14
g2
Ntp4138
Rp4139
(dp4140
g18
F0.5
sg19
I71
sg20
g0
(g21
g22
(dp4141
I00
I71
stp4142
Rp4143
(dp4144
g19
I71
sg27
Nsg28
Nsg29
Nsbsg30
I3
sg31
F72.5
sbs(g9
Vcontains(tum)
p4145
tp4146
g0
(g14
g2
Ntp4147
Rp4148
(dp4149
g18
F0.5
sg19
I71
sg20
g0
(g21
g22
(dp4150
I00
I71
stp4151
Rp4152
(dp4153
g19
I71
sg27
Nsg28
Nsg29
Nsbsg30
I3
sg31
F72.5
sbs(g8
Vcontains(prompto)
p4154
tp4155
g0
(g14
g2
Ntp4156
Rp4157
(dp4158
g18
F0.5
sg19
I99
sg20
g0
(g21
g22
(dp4159
I00
I98
sI01
I1
stp4160
Rp4161
(dp4162
g19
I99
sg27
Nsg28
Nsg29
Nsbsg30
I3
sg31
F100.5
sbs(g8
Vcontains(mon)
p4163
tp4164
g0
(g14
g2
Ntp4165
Rp4166
(dp4167
g18
F0.5
sg19
I99
sg20
g0
(g21
g22
(dp4168
I00
I99
stp4169
Rp4170
(dp4171
g19
I99
sg27
Nsg28
Nsg29
Nsbsg30
I3
sg31
F100.5
sbs(g8
Vcontains(dance)
p4172
tp4173
g0
(g14
g2
Ntp4174
Rp4175
(dp4176
g18
F0.5
sg19
I99
sg20
g0
(g21
g22
(dp4177
I00
I97
sI01
I2
stp4178
Rp4179
(dp4180
g19
I99
sg27
Nsg28
Nsg29
Nsbsg30
I3
sg31
F100.5
sbs(g8
Vcontains(time)
p4181
tp4182
g0
(g14
g2
Ntp4183
Rp4184
(dp4185
g18
F0.5
sg19
I99
sg20
g0
(g21
g22
(dp4186
I00
I99
stp4187
Rp4188
(dp4189
g19
I99
sg27
Nsg28
Nsg29
Nsbsg30
I3
sg31
F100.5
sbs(g8
Vcontains(school)
p4190
tp4191
g0
(g14
g2
Ntp4192
Rp4193
(dp4194
g18
F0.5
sg19
I99
sg20
g0
(g21
g22
(dp4195
I00
I99
stp4196
Rp4197
(dp4198
g19
I99
sg27
Nsg28
Nsg29
Nsbsg30
I3
sg31
F100.5
sbs(g9
Vcontains(program)
p4199
tp4200
g0
(g14
g2
Ntp4201
Rp4202
(dp4203
g18
F0.5
sg19
I71
sg20
g0
(g21
g22
(dp4204
I00
I70
sI01
I1
stp4205
Rp4206
(dp4207
g19
I71
sg27
Nsg28
Nsg29
Nsbsg30
I3
sg31
F72.5
sbs(g8
Vcontains(increase)
p4208
tp4209
g0
(g14
g2
Ntp4210
Rp4211
(dp4212
g18
F0.5
sg19
I99
sg20
g0
(g21
g22
(dp4213
I00
I98
sI01
I1
stp4214
Rp4215
(dp4216
g19
I99
sg27
Nsg28
Nsg29
Nsbsg30
I3
sg31
F100.5
sbs(g8
Vcontains(sumeetha)
p4217
tp4218
g0
(g14
g2
Ntp4219
Rp4220
(dp4221
g18
F0.5
sg19
I99
sg20
g0
(g21
g22
(dp4222
I00
I99
stp4223
Rp4224
(dp4225
g19
I99
sg27
Nsg28
Nsg29
Nsbsg30
I3
sg31
F100.5
sbs(g8
Vcontains(dear)
p4226
tp4227
g0
(g14
g2
Ntp4228
Rp4229
(dp4230
g18
F0.5
sg19
I99
sg20
g0
(g21
g22
(dp4231
I00
I98
sI01
I1
stp4232
Rp4233
(dp4234
g19
I99
sg27
Nsg28
Nsg29
Nsbsg30
I3
sg31
F100.5
sbs(g9
Vcontains(everyday)
p4235
tp4236
g0
(g14
g2
Ntp4237
Rp4238
(dp4239
g18
F0.5
sg19
I71
sg20
g0
(g21
g22
(dp4240
I00
I71
stp4241
Rp4242
(dp4243
g19
I71
sg27
Nsg28
Nsg29
Nsbsg30
I3
sg31
F72.5
sbs(g8
Vcontains(tim)
p4244
tp4245
g0
(g14
g2
Ntp4246
Rp4247
(dp4248
g18
F0.5
sg19
I99
sg20
g0
(g21
g22
(dp4249
I00
I99
stp4250
Rp4251
(dp4252
g19
I99
sg27
Nsg28
Nsg29
Nsbsg30
I3
sg31
F100.5
sbs(g8
Vcontains(beat)
p4253
tp4254
g0
(g14
g2
Ntp4255
Rp4256
(dp4257
g18
F0.5
sg19
I99
sg20
g0
(g21
g22
(dp4258
I00
I98
sI01
I1
stp4259
Rp4260
(dp4261
g19
I99
sg27
Nsg28
Nsg29
Nsbsg30
I3
sg31
F100.5
sbs(g8
Vcontains(prepare)
p4262
tp4263
g0
(g14
g2
Ntp4264
Rp4265
(dp4266
g18
F0.5
sg19
I99
sg20
g0
(g21
g22
(dp4267
I00
I98
sI01
I1
stp4268
Rp4269
(dp4270
g19
I99
sg27
Nsg28
Nsg29
Nsbsg30
I3
sg31
F100.5
sbs(g8
Vcontains(adversarial)
p4271
tp4272
g0
(g14
g2
Ntp4273
Rp4274
(dp4275
g18
F0.5
sg19
I99
sg20
g0
(g21
g22
(dp4276
I00
I99
stp4277
Rp4278
(dp4279
g19
I99
sg27
Nsg28
Nsg29
Nsbsg30
I3
sg31
F100.5
sbs(g8
Vcontains(entire)
p4280
tp4281
g0
(g14
g2
Ntp4282
Rp4283
(dp4284
g18
F0.5
sg19
I99
sg20
g0
(g21
g22
(dp4285
I00
I98
sI01
I1
stp4286
Rp4287
(dp4288
g19
I99
sg27
Nsg28
Nsg29
Nsbsg30
I3
sg31
F100.5
sbs(g9
Vcontains(queen)
p4289
tp4290
g0
(g14
g2
Ntp4291
Rp4292
(dp4293
g18
F0.5
sg19
I71
sg20
g0
(g21
g22
(dp4294
I00
I70
sI01
I1
stp4295
Rp4296
(dp4297
g19
I71
sg27
Nsg28
Nsg29
Nsbsg30
I3
sg31
F72.5
sbs(g9
Vcontains(catt)
p4298
tp4299
g0
(g14
g2
Ntp4300
Rp4301
(dp4302
g18
F0.5
sg19
I71
sg20
g0
(g21
g22
(dp4303
I00
I70
sI01
I1
stp4304
Rp4305
(dp4306
g19
I71
sg27
Nsg28
Nsg29
Nsbsg30
I3
sg31
F72.5
sbs(g8
Vcontains(solid)
p4307
tp4308
g0
(g14
g2
Ntp4309
Rp4310
(dp4311
g18
F0.5
sg19
I99
sg20
g0
(g21
g22
(dp4312
I00
I98
sI01
I1
stp4313
Rp4314
(dp4315
g19
I99
sg27
Nsg28
Nsg29
Nsbsg30
I3
sg31
F100.5
sbs(g9
Vcontains(shy)
p4316
tp4317
g0
(g14
g2
Ntp4318
Rp4319
(dp4320
g18
F0.5
sg19
I71
sg20
g0
(g21
g22
(dp4321
I00
I71
stp4322
Rp4323
(dp4324
g19
I71
sg27
Nsg28
Nsg29
Nsbsg30
I3
sg31
F72.5
sbs(g9
Vcontains(hacks)
p4325
tp4326
g0
(g14
g2
Ntp4327
Rp4328
(dp4329
g18
F0.5
sg19
I71
sg20
g0
(g21
g22
(dp4330
I00
I70
sI01
I1
stp4331
Rp4332
(dp4333
g19
I71
sg27
Nsg28
Nsg29
Nsbsg30
I3
sg31
F72.5
sbs(g9
Vcontains(generative)
p4334
tp4335
g0
(g14
g2
Ntp4336
Rp4337
(dp4338
g18
F0.5
sg19
I71
sg20
g0
(g21
g22
(dp4339
I00
I70
sI01
I1
stp4340
Rp4341
(dp4342
g19
I71
sg27
Nsg28
Nsg29
Nsbsg30
I3
sg31
F72.5
sbs(g9
Vcontains(bird)
p4343
tp4344
g0
(g14
g2
Ntp4345
Rp4346
(dp4347
g18
F0.5
sg19
I71
sg20
g0
(g21
g22
(dp4348
I00
I71
stp4349
Rp4350
(dp4351
g19
I71
sg27
Nsg28
Nsg29
Nsbsg30
I3
sg31
F72.5
sbs(g9
Vcontains(mo)
p4352
tp4353
g0
(g14
g2
Ntp4354
Rp4355
(dp4356
g18
F0.5
sg19
I71
sg20
g0
(g21
g22
(dp4357
I00
I71
stp4358
Rp4359
(dp4360
g19
I71
sg27
Nsg28
Nsg29
Nsbsg30
I3
sg31
F72.5
sbs(g9
Vcontains(haters)
p4361
tp4362
g0
(g14
g2
Ntp4363
Rp4364
(dp4365
g18
F0.5
sg19
I71
sg20
g0
(g21
g22
(dp4366
I00
I71
stp4367
Rp4368
(dp4369
g19
I71
sg27
Nsg28
Nsg29
Nsbsg30
I3
sg31
F72.5
sbs(g8
Vcontains(subhanallah)
p4370
tp4371
g0
(g14
g2
Ntp4372
Rp4373
(dp4374
g18
F0.5
sg19
I99
sg20
g0
(g21
g22
(dp4375
I00
I98
sI01
I1
stp4376
Rp4377
(dp4378
g19
I99
sg27
Nsg28
Nsg29
Nsbsg30
I3
sg31
F100.5
sbs(g8
Vcontains(oh)
p4379
tp4380
g0
(g14
g2
Ntp4381
Rp4382
(dp4383
g18
F0.5
sg19
I99
sg20
g0
(g21
g22
(dp4384
I00
I99
stp4385
Rp4386
(dp4387
g19
I99
sg27
Nsg28
Nsg29
Nsbsg30
I3
sg31
F100.5
sbs(g8
Vcontains(family)
p4388
tp4389
g0
(g14
g2
Ntp4390
Rp4391
(dp4392
g18
F0.5
sg19
I99
sg20
g0
(g21
g22
(dp4393
I00
I98
sI01
I1
stp4394
Rp4395
(dp4396
g19
I99
sg27
Nsg28
Nsg29
Nsbsg30
I3
sg31
F100.5
sbs(g8
Vcontains(mah)
p4397
tp4398
g0
(g14
g2
Ntp4399
Rp4400
(dp4401
g18
F0.5
sg19
I99
sg20
g0
(g21
g22
(dp4402
I00
I98
sI01
I1
stp4403
Rp4404
(dp4405
g19
I99
sg27
Nsg28
Nsg29
Nsbsg30
I3
sg31
F100.5
sbs(g8
Vcontains(porn8)
p4406
tp4407
g0
(g14
g2
Ntp4408
Rp4409
(dp4410
g18
F0.5
sg19
I99
sg20
g0
(g21
g22
(dp4411
I00
I96
sI01
I3
stp4412
Rp4413
(dp4414
g19
I99
sg27
Nsg28
Nsg29
Nsbsg30
I3
sg31
F100.5
sbs(g8
Vcontains(extreme)
p4415
tp4416
g0
(g14
g2
Ntp4417
Rp4418
(dp4419
g18
F0.5
sg19
I99
sg20
g0
(g21
g22
(dp4420
I00
I74
sI01
I25
stp4421
Rp4422
(dp4423
g19
I99
sg27
Nsg28
Nsg29
Nsbsg30
I3
sg31
F100.5
sbs(g9
Vcontains(instagram)
p4424
tp4425
g0
(g14
g2
Ntp4426
Rp4427
(dp4428
g18
F0.5
sg19
I71
sg20
g0
(g21
g22
(dp4429
I00
I70
sI01
I1
stp4430
Rp4431
(dp4432
g19
I71
sg27
Nsg28
Nsg29
Nsbsg30
I3
sg31
F72.5
sbs(g8
Vcontains(escort)
p4433
tp4434
g0
(g14
g2
Ntp4435
Rp4436
(dp4437
g18
F0.5
sg19
I99
sg20
g0
(g21
g22
(dp4438
I00
I98
sI01
I1
stp4439
Rp4440
(dp4441
g19
I99
sg27
Nsg28
Nsg29
Nsbsg30
I3
sg31
F100.5
sbs(g8
Vcontains(king)
p4442
tp4443
g0
(g14
g2
Ntp4444
Rp4445
(dp4446
g18
F0.5
sg19
I99
sg20
g0
(g21
g22
(dp4447
I00
I99
stp4448
Rp4449
(dp4450
g19
I99
sg27
Nsg28
Nsg29
Nsbsg30
I3
sg31
F100.5
sbs(g9
Vcontains(al)
p4451
tp4452
g0
(g14
g2
Ntp4453
Rp4454
(dp4455
g18
F0.5
sg19
I71
sg20
g0
(g21
g22
(dp4456
I00
I70
sI01
I1
stp4457
Rp4458
(dp4459
g19
I71
sg27
Nsg28
Nsg29
Nsbsg30
I3
sg31
F72.5
sbs(g9
Vcontains(producing)
p4460
tp4461
g0
(g14
g2
Ntp4462
Rp4463
(dp4464
g18
F0.5
sg19
I71
sg20
g0
(g21
g22
(dp4465
I00
I70
sI01
I1
stp4466
Rp4467
(dp4468
g19
I71
sg27
Nsg28
Nsg29
Nsbsg30
I3
sg31
F72.5
sbs(g8
Vcontains(mikey)
p4469
tp4470
g0
(g14
g2
Ntp4471
Rp4472
(dp4473
g18
F0.5
sg19
I99
sg20
g0
(g21
g22
(dp4474
I00
I99
stp4475
Rp4476
(dp4477
g19
I99
sg27
Nsg28
Nsg29
Nsbsg30
I3
sg31
F100.5
sbs(g9
Vcontains(naked)
p4478
tp4479
g0
(g14
g2
Ntp4480
Rp4481
(dp4482
g18
F0.5
sg19
I71
sg20
g0
(g21
g22
(dp4483
I00
I71
stp4484
Rp4485
(dp4486
g19
I71
sg27
Nsg28
Nsg29
Nsbsg30
I3
sg31
F72.5
sbs(g8
Vcontains(trump)
p4487
tp4488
g0
(g14
g2
Ntp4489
Rp4490
(dp4491
g18
F0.5
sg19
I99
sg20
g0
(g21
g22
(dp4492
I00
I97
sI01
I2
stp4493
Rp4494
(dp4495
g19
I99
sg27
Nsg28
Nsg29
Nsbsg30
I3
sg31
F100.5
sbs(g8
Vcontains(behavior)
p4496
tp4497
g0
(g14
g2
Ntp4498
Rp4499
(dp4500
g18
F0.5
sg19
I99
sg20
g0
(g21
g22
(dp4501
I00
I99
stp4502
Rp4503
(dp4504
g19
I99
sg27
Nsg28
Nsg29
Nsbsg30
I3
sg31
F100.5
sbs(g8
Vcontains(dubai)
p4505
tp4506
g0
(g14
g2
Ntp4507
Rp4508
(dp4509
g18
F0.5
sg19
I99
sg20
g0
(g21
g22
(dp4510
I00
I98
sI01
I1
stp4511
Rp4512
(dp4513
g19
I99
sg27
Nsg28
Nsg29
Nsbsg30
I3
sg31
F100.5
sbs(g9
Vcontains(speech)
p4514
tp4515
g0
(g14
g2
Ntp4516
Rp4517
(dp4518
g18
F0.5
sg19
I71
sg20
g0
(g21
g22
(dp4519
I00
I70
sI01
I1
stp4520
Rp4521
(dp4522
g19
I71
sg27
Nsg28
Nsg29
Nsbsg30
I3
sg31
F72.5
sbs(g9
Vcontains(longing)
p4523
tp4524
g0
(g14
g2
Ntp4525
Rp4526
(dp4527
g18
F0.5
sg19
I71
sg20
g0
(g21
g22
(dp4528
I00
I71
stp4529
Rp4530
(dp4531
g19
I71
sg27
Nsg28
Nsg29
Nsbsg30
I3
sg31
F72.5
sbs(g8
Vcontains(affect)
p4532
tp4533
g0
(g14
g2
Ntp4534
Rp4535
(dp4536
g18
F0.5
sg19
I99
sg20
g0
(g21
g22
(dp4537
I00
I99
stp4538
Rp4539
(dp4540
g19
I99
sg27
Nsg28
Nsg29
Nsbsg30
I3
sg31
F100.5
sbs(g9
Vcontains(eve)
p4541
tp4542
g0
(g14
g2
Ntp4543
Rp4544
(dp4545
g18
F0.5
sg19
I71
sg20
g0
(g21
g22
(dp4546
I00
I71
stp4547
Rp4548
(dp4549
g19
I71
sg27
Nsg28
Nsg29
Nsbsg30
I3
sg31
F72.5
sbs(g9
Vcontains(india)
p4550
tp4551
g0
(g14
g2
Ntp4552
Rp4553
(dp4554
g18
F0.5
sg19
I71
sg20
g0
(g21
g22
(dp4555
I00
I71
stp4556
Rp4557
(dp4558
g19
I71
sg27
Nsg28
Nsg29
Nsbsg30
I3
sg31
F72.5
sbs(g9
Vcontains(exposed)
p4559
tp4560
g0
(g14
g2
Ntp4561
Rp4562
(dp4563
g18
F0.5
sg19
I71
sg20
g0
(g21
g22
(dp4564
I00
I70
sI01
I1
stp4565
Rp4566
(dp4567
g19
I71
sg27
Nsg28
Nsg29
Nsbsg30
I3
sg31
F72.5
sbs(g9
Vcontains(agents)
p4568
tp4569
g0
(g14
g2
Ntp4570
Rp4571
(dp4572
g18
F0.5
sg19
I71
sg20
g0
(g21
g22
(dp4573
I00
I70
sI01
I1
stp4574
Rp4575
(dp4576
g19
I71
sg27
Nsg28
Nsg29
Nsbsg30
I3
sg31
F72.5
sbs(g9
Vcontains(club)
p4577
tp4578
g0
(g14
g2
Ntp4579
Rp4580
(dp4581
g18
F0.5
sg19
I71
sg20
g0
(g21
g22
(dp4582
I00
I70
sI01
I1
stp4583
Rp4584
(dp4585
g19
I71
sg27
Nsg28
Nsg29
Nsbsg30
I3
sg31
F72.5
sbs(g8
Vcontains(jungkook)
p4586
tp4587
g0
(g14
g2
Ntp4588
Rp4589
(dp4590
g18
F0.5
sg19
I99
sg20
g0
(g21
g22
(dp4591
I00
I98
sI01
I1
stp4592
Rp4593
(dp4594
g19
I99
sg27
Nsg28
Nsg29
Nsbsg30
I3
sg31
F100.5
sbs(g9
Vcontains(smile)
p4595
tp4596
g0
(g14
g2
Ntp4597
Rp4598
(dp4599
g18
F0.5
sg19
I71
sg20
g0
(g21
g22
(dp4600
I00
I71
stp4601
Rp4602
(dp4603
g19
I71
sg27
Nsg28
Nsg29
Nsbsg30
I3
sg31
F72.5
sbs(g8
Vcontains(listen)
p4604
tp4605
g0
(g14
g2
Ntp4606
Rp4607
(dp4608
g18
F0.5
sg19
I99
sg20
g0
(g21
g22
(dp4609
I00
I99
stp4610
Rp4611
(dp4612
g19
I99
sg27
Nsg28
Nsg29
Nsbsg30
I3
sg31
F100.5
sbs(g9
Vcontains(mcadoo)
p4613
tp4614
g0
(g14
g2
Ntp4615
Rp4616
(dp4617
g18
F0.5
sg19
I71
sg20
g0
(g21
g22
(dp4618
I00
I70
sI01
I1
stp4619
Rp4620
(dp4621
g19
I71
sg27
Nsg28
Nsg29
Nsbsg30
I3
sg31
F72.5
sbs(g9
Vcontains(raw)
p4622
tp4623
g0
(g14
g2
Ntp4624
Rp4625
(dp4626
g18
F0.5
sg19
I71
sg20
g0
(g21
g22
(dp4627
I00
I70
sI01
I1
stp4628
Rp4629
(dp4630
g19
I71
sg27
Nsg28
Nsg29
Nsbsg30
I3
sg31
F72.5
sbs(g9
Vcontains(giving)
p4631
tp4632
g0
(g14
g2
Ntp4633
Rp4634
(dp4635
g18
F0.5
sg19
I71
sg20
g0
(g21
g22
(dp4636
I00
I71
stp4637
Rp4638
(dp4639
g19
I71
sg27
Nsg28
Nsg29
Nsbsg30
I3
sg31
F72.5
sbs(g9
Vcontains(stuff)
p4640
tp4641
g0
(g14
g2
Ntp4642
Rp4643
(dp4644
g18
F0.5
sg19
I71
sg20
g0
(g21
g22
(dp4645
I00
I70
sI01
I1
stp4646
Rp4647
(dp4648
g19
I71
sg27
Nsg28
Nsg29
Nsbsg30
I3
sg31
F72.5
sbs(g9
Vcontains(megan)
p4649
tp4650
g0
(g14
g2
Ntp4651
Rp4652
(dp4653
g18
F0.5
sg19
I71
sg20
g0
(g21
g22
(dp4654
I00
I71
stp4655
Rp4656
(dp4657
g19
I71
sg27
Nsg28
Nsg29
Nsbsg30
I3
sg31
F72.5
sbs(g9
Vcontains(presentation)
p4658
tp4659
g0
(g14
g2
Ntp4660
Rp4661
(dp4662
g18
F0.5
sg19
I71
sg20
g0
(g21
g22
(dp4663
I00
I71
stp4664
Rp4665
(dp4666
g19
I71
sg27
Nsg28
Nsg29
Nsbsg30
I3
sg31
F72.5
sbs(g9
Vcontains(found)
p4667
tp4668
g0
(g14
g2
Ntp4669
Rp4670
(dp4671
g18
F0.5
sg19
I71
sg20
g0
(g21
g22
(dp4672
I00
I70
sI01
I1
stp4673
Rp4674
(dp4675
g19
I71
sg27
Nsg28
Nsg29
Nsbsg30
I3
sg31
F72.5
sbs(g9
Vcontains(msm)
p4676
tp4677
g0
(g14
g2
Ntp4678
Rp4679
(dp4680
g18
F0.5
sg19
I71
sg20
g0
(g21
g22
(dp4681
I00
I69
sI01
I2
stp4682
Rp4683
(dp4684
g19
I71
sg27
Nsg28
Nsg29
Nsbsg30
I3
sg31
F72.5
sbs(g8
Vcontains(tum)
p4685
tp4686
g0
(g14
g2
Ntp4687
Rp4688
(dp4689
g18
F0.5
sg19
I99
sg20
g0
(g21
g22
(dp4690
I00
I98
sI01
I1
stp4691
Rp4692
(dp4693
g19
I99
sg27
Nsg28
Nsg29
Nsbsg30
I3
sg31
F100.5
sbs(g9
Vcontains(medical)
p4694
tp4695
g0
(g14
g2
Ntp4696
Rp4697
(dp4698
g18
F0.5
sg19
I71
sg20
g0
(g21
g22
(dp4699
I00
I70
sI01
I1
stp4700
Rp4701
(dp4702
g19
I71
sg27
Nsg28
Nsg29
Nsbsg30
I3
sg31
F72.5
sbs(g8
Vcontains(dj)
p4703
tp4704
g0
(g14
g2
Ntp4705
Rp4706
(dp4707
g18
F0.5
sg19
I99
sg20
g0
(g21
g22
(dp4708
I00
I99
stp4709
Rp4710
(dp4711
g19
I99
sg27
Nsg28
Nsg29
Nsbsg30
I3
sg31
F100.5
sbs(g8
Vcontains(nutrition)
p4712
tp4713
g0
(g14
g2
Ntp4714
Rp4715
(dp4716
g18
F0.5
sg19
I99
sg20
g0
(g21
g22
(dp4717
I00
I99
stp4718
Rp4719
(dp4720
g19
I99
sg27
Nsg28
Nsg29
Nsbsg30
I3
sg31
F100.5
sbs(g8
Vcontains(antis)
p4721
tp4722
g0
(g14
g2
Ntp4723
Rp4724
(dp4725
g18
F0.5
sg19
I99
sg20
g0
(g21
g22
(dp4726
I00
I99
stp4727
Rp4728
(dp4729
g19
I99
sg27
Nsg28
Nsg29
Nsbsg30
I3
sg31
F100.5
sbs(g8
Vcontains(unless)
p4730
tp4731
g0
(g14
g2
Ntp4732
Rp4733
(dp4734
g18
F0.5
sg19
I99
sg20
g0
(g21
g22
(dp4735
I00
I99
stp4736
Rp4737
(dp4738
g19
I99
sg27
Nsg28
Nsg29
Nsbsg30
I3
sg31
F100.5
sbs(g9
Vcontains(mylapore)
p4739
tp4740
g0
(g14
g2
Ntp4741
Rp4742
(dp4743
g18
F0.5
sg19
I71
sg20
g0
(g21
g22
(dp4744
I00
I70
sI01
I1
stp4745
Rp4746
(dp4747
g19
I71
sg27
Nsg28
Nsg29
Nsbsg30
I3
sg31
F72.5
sbs(g9
Vcontains(explore)
p4748
tp4749
g0
(g14
g2
Ntp4750
Rp4751
(dp4752
g18
F0.5
sg19
I71
sg20
g0
(g21
g22
(dp4753
I00
I70
sI01
I1
stp4754
Rp4755
(dp4756
g19
I71
sg27
Nsg28
Nsg29
Nsbsg30
I3
sg31
F72.5
sbs(g8
Vcontains(forgotten)
p4757
tp4758
g0
(g14
g2
Ntp4759
Rp4760
(dp4761
g18
F0.5
sg19
I99
sg20
g0
(g21
g22
(dp4762
I00
I99
stp4763
Rp4764
(dp4765
g19
I99
sg27
Nsg28
Nsg29
Nsbsg30
I3
sg31
F100.5
sbs(g9
Vcontains(bmcresults)
p4766
tp4767
g0
(g14
g2
Ntp4768
Rp4769
(dp4770
g18
F0.5
sg19
I71
sg20
g0
(g21
g22
(dp4771
I00
I70
sI01
I1
stp4772
Rp4773
(dp4774
g19
I71
sg27
Nsg28
Nsg29
Nsbsg30
I3
sg31
F72.5
sbs(g8
Vcontains(mission)
p4775
tp4776
g0
(g14
g2
Ntp4777
Rp4778
(dp4779
g18
F0.5
sg19
I99
sg20
g0
(g21
g22
(dp4780
I00
I99
stp4781
Rp4782
(dp4783
g19
I99
sg27
Nsg28
Nsg29
Nsbsg30
I3
sg31
F100.5
sbs(g9
Vcontains(retweets)
p4784
tp4785
g0
(g14
g2
Ntp4786
Rp4787
(dp4788
g18
F0.5
sg19
I71
sg20
g0
(g21
g22
(dp4789
I00
I70
sI01
I1
stp4790
Rp4791
(dp4792
g19
I71
sg27
Nsg28
Nsg29
Nsbsg30
I3
sg31
F72.5
sbs(g8
Vcontains(allah)
p4793
tp4794
g0
(g14
g2
Ntp4795
Rp4796
(dp4797
g18
F0.5
sg19
I99
sg20
g0
(g21
g22
(dp4798
I00
I98
sI01
I1
stp4799
Rp4800
(dp4801
g19
I99
sg27
Nsg28
Nsg29
Nsbsg30
I3
sg31
F100.5
sbs(g8
Vcontains(chad)
p4802
tp4803
g0
(g14
g2
Ntp4804
Rp4805
(dp4806
g18
F0.5
sg19
I99
sg20
g0
(g21
g22
(dp4807
I00
I99
stp4808
Rp4809
(dp4810
g19
I99
sg27
Nsg28
Nsg29
Nsbsg30
I3
sg31
F100.5
sbs(g9
Vcontains(socialmedia)
p4811
tp4812
g0
(g14
g2
Ntp4813
Rp4814
(dp4815
g18
F0.5
sg19
I71
sg20
g0
(g21
g22
(dp4816
I00
I70
sI01
I1
stp4817
Rp4818
(dp4819
g19
I71
sg27
Nsg28
Nsg29
Nsbsg30
I3
sg31
F72.5
sbs(g9
Vcontains(rap)
p4820
tp4821
g0
(g14
g2
Ntp4822
Rp4823
(dp4824
g18
F0.5
sg19
I71
sg20
g0
(g21
g22
(dp4825
I00
I71
stp4826
Rp4827
(dp4828
g19
I71
sg27
Nsg28
Nsg29
Nsbsg30
I3
sg31
F72.5
sbs(g9
Vcontains(look)
p4829
tp4830
g0
(g14
g2
Ntp4831
Rp4832
(dp4833
g18
F0.5
sg19
I71
sg20
g0
(g21
g22
(dp4834
I00
I71
stp4835
Rp4836
(dp4837
g19
I71
sg27
Nsg28
Nsg29
Nsbsg30
I3
sg31
F72.5
sbs(g9
Vcontains(behavior)
p4838
tp4839
g0
(g14
g2
Ntp4840
Rp4841
(dp4842
g18
F0.5
sg19
I71
sg20
g0
(g21
g22
(dp4843
I00
I70
sI01
I1
stp4844
Rp4845
(dp4846
g19
I71
sg27
Nsg28
Nsg29
Nsbsg30
I3
sg31
F72.5
sbs(g9
Vcontains(bar)
p4847
tp4848
g0
(g14
g2
Ntp4849
Rp4850
(dp4851
g18
F0.5
sg19
I71
sg20
g0
(g21
g22
(dp4852
I00
I71
stp4853
Rp4854
(dp4855
g19
I71
sg27
Nsg28
Nsg29
Nsbsg30
I3
sg31
F72.5
sbs(g9
Vcontains(whatsap)
p4856
tp4857
g0
(g14
g2
Ntp4858
Rp4859
(dp4860
g18
F0.5
sg19
I71
sg20
g0
(g21
g22
(dp4861
I00
I71
stp4862
Rp4863
(dp4864
g19
I71
sg27
Nsg28
Nsg29
Nsbsg30
I3
sg31
F72.5
sbs(g9
Vcontains(mean)
p4865
tp4866
g0
(g14
g2
Ntp4867
Rp4868
(dp4869
g18
F0.5
sg19
I71
sg20
g0
(g21
g22
(dp4870
I00
I70
sI01
I1
stp4871
Rp4872
(dp4873
g19
I71
sg27
Nsg28
Nsg29
Nsbsg30
I3
sg31
F72.5
sbs(g9
Vcontains(rules)
p4874
tp4875
g0
(g14
g2
Ntp4876
Rp4877
(dp4878
g18
F0.5
sg19
I71
sg20
g0
(g21
g22
(dp4879
I00
I70
sI01
I1
stp4880
Rp4881
(dp4882
g19
I71
sg27
Nsg28
Nsg29
Nsbsg30
I3
sg31
F72.5
sbs(g9
Vcontains(april)
p4883
tp4884
g0
(g14
g2
Ntp4885
Rp4886
(dp4887
g18
F0.5
sg19
I71
sg20
g0
(g21
g22
(dp4888
I00
I71
stp4889
Rp4890
(dp4891
g19
I71
sg27
Nsg28
Nsg29
Nsbsg30
I3
sg31
F72.5
sbs(g8
Vcontains(community)
p4892
tp4893
g0
(g14
g2
Ntp4894
Rp4895
(dp4896
g18
F0.5
sg19
I99
sg20
g0
(g21
g22
(dp4897
I00
I99
stp4898
Rp4899
(dp4900
g19
I99
sg27
Nsg28
Nsg29
Nsbsg30
I3
sg31
F100.5
sbs(g8
Vcontains(notice)
p4901
tp4902
g0
(g14
g2
Ntp4903
Rp4904
(dp4905
g18
F0.5
sg19
I99
sg20
g0
(g21
g22
(dp4906
I00
I99
stp4907
Rp4908
(dp4909
g19
I99
sg27
Nsg28
Nsg29
Nsbsg30
I3
sg31
F100.5
sbs(g8
Vcontains(shoot)
p4910
tp4911
g0
(g14
g2
Ntp4912
Rp4913
(dp4914
g18
F0.5
sg19
I99
sg20
g0
(g21
g22
(dp4915
I00
I98
sI01
I1
stp4916
Rp4917
(dp4918
g19
I99
sg27
Nsg28
Nsg29
Nsbsg30
I3
sg31
F100.5
sbs(g8
Vcontains(sponsored)
p4919
tp4920
g0
(g14
g2
Ntp4921
Rp4922
(dp4923
g18
F0.5
sg19
I99
sg20
g0
(g21
g22
(dp4924
I00
I99
stp4925
Rp4926
(dp4927
g19
I99
sg27
Nsg28
Nsg29
Nsbsg30
I3
sg31
F100.5
sbs(g8
Vcontains(future)
p4928
tp4929
g0
(g14
g2
Ntp4930
Rp4931
(dp4932
g18
F0.5
sg19
I99
sg20
g0
(g21
g22
(dp4933
I00
I99
stp4934
Rp4935
(dp4936
g19
I99
sg27
Nsg28
Nsg29
Nsbsg30
I3
sg31
F100.5
sbs(g9
Vcontains(past)
p4937
tp4938
g0
(g14
g2
Ntp4939
Rp4940
(dp4941
g18
F0.5
sg19
I71
sg20
g0
(g21
g22
(dp4942
I00
I70
sI01
I1
stp4943
Rp4944
(dp4945
g19
I71
sg27
Nsg28
Nsg29
Nsbsg30
I3
sg31
F72.5
sbs(g9
Vcontains(kk)
p4946
tp4947
g0
(g14
g2
Ntp4948
Rp4949
(dp4950
g18
F0.5
sg19
I71
sg20
g0
(g21
g22
(dp4951
I00
I71
stp4952
Rp4953
(dp4954
g19
I71
sg27
Nsg28
Nsg29
Nsbsg30
I3
sg31
F72.5
sbs(g8
Vcontains(ydawmehaa)
p4955
tp4956
g0
(g14
g2
Ntp4957
Rp4958
(dp4959
g18
F0.5
sg19
I99
sg20
g0
(g21
g22
(dp4960
I00
I99
stp4961
Rp4962
(dp4963
g19
I99
sg27
Nsg28
Nsg29
Nsbsg30
I3
sg31
F100.5
sbs(g9
Vcontains(gonna)
p4964
tp4965
g0
(g14
g2
Ntp4966
Rp4967
(dp4968
g18
F0.5
sg19
I71
sg20
g0
(g21
g22
(dp4969
I00
I71
stp4970
Rp4971
(dp4972
g19
I71
sg27
Nsg28
Nsg29
Nsbsg30
I3
sg31
F72.5
sbs(g9
Vcontains(ko)
p4973
tp4974
g0
(g14
g2
Ntp4975
Rp4976
(dp4977
g18
F0.5
sg19
I71
sg20
g0
(g21
g22
(dp4978
I00
I71
stp4979
Rp4980
(dp4981
g19
I71
sg27
Nsg28
Nsg29
Nsbsg30
I3
sg31
F72.5
sbs(g8
Vcontains(white)
p4982
tp4983
g0
(g14
g2
Ntp4984
Rp4985
(dp4986
g18
F0.5
sg19
I99
sg20
g0
(g21
g22
(dp4987
I00
I98
sI01
I1
stp4988
Rp4989
(dp4990
g19
I99
sg27
Nsg28
Nsg29
Nsbsg30
I3
sg31
F100.5
sbs(g9
Vcontains(bullying)
p4991
tp4992
g0
(g14
g2
Ntp4993
Rp4994
(dp4995
g18
F0.5
sg19
I71
sg20
g0
(g21
g22
(dp4996
I00
I70
sI01
I1
stp4997
Rp4998
(dp4999
g19
I71
sg27
Nsg28
Nsg29
Nsbsg30
I3
sg31
F72.5
sbs(g8
Vcontains(child)
p5000
tp5001
g0
(g14
g2
Ntp5002
Rp5003
(dp5004
g18
F0.5
sg19
I99
sg20
g0
(g21
g22
(dp5005
I00
I99
stp5006
Rp5007
(dp5008
g19
I99
sg27
Nsg28
Nsg29
Nsbsg30
I3
sg31
F100.5
sbs(g8
Vcontains(verse)
p5009
tp5010
g0
(g14
g2
Ntp5011
Rp5012
(dp5013
g18
F0.5
sg19
I99
sg20
g0
(g21
g22
(dp5014
I00
I98
sI01
I1
stp5015
Rp5016
(dp5017
g19
I99
sg27
Nsg28
Nsg29
Nsbsg30
I3
sg31
F100.5
sbs(g8
Vcontains(huge)
p5018
tp5019
g0
(g14
g2
Ntp5020
Rp5021
(dp5022
g18
F0.5
sg19
I99
sg20
g0
(g21
g22
(dp5023
I00
I99
stp5024
Rp5025
(dp5026
g19
I99
sg27
Nsg28
Nsg29
Nsbsg30
I3
sg31
F100.5
sbs(g8
Vcontains(pisces)
p5027
tp5028
g0
(g14
g2
Ntp5029
Rp5030
(dp5031
g18
F0.5
sg19
I99
sg20
g0
(g21
g22
(dp5032
I00
I74
sI01
I25
stp5033
Rp5034
(dp5035
g19
I99
sg27
Nsg28
Nsg29
Nsbsg30
I3
sg31
F100.5
sbs(g8
Vcontains(srwrw)
p5036
tp5037
g0
(g14
g2
Ntp5038
Rp5039
(dp5040
g18
F0.5
sg19
I99
sg20
g0
(g21
g22
(dp5041
I00
I98
sI01
I1
stp5042
Rp5043
(dp5044
g19
I99
sg27
Nsg28
Nsg29
Nsbsg30
I3
sg31
F100.5
sbs(g9
Vcontains(tweet)
p5045
tp5046
g0
(g14
g2
Ntp5047
Rp5048
(dp5049
g18
F0.5
sg19
I71
sg20
g0
(g21
g22
(dp5050
I00
I71
stp5051
Rp5052
(dp5053
g19
I71
sg27
Nsg28
Nsg29
Nsbsg30
I3
sg31
F72.5
sbs(g8
Vcontains(aim)
p5054
tp5055
g0
(g14
g2
Ntp5056
Rp5057
(dp5058
g18
F0.5
sg19
I99
sg20
g0
(g21
g22
(dp5059
I00
I98
sI01
I1
stp5060
Rp5061
(dp5062
g19
I99
sg27
Nsg28
Nsg29
Nsbsg30
I3
sg31
F100.5
sbs(g9
Vcontains(measures)
p5063
tp5064
g0
(g14
g2
Ntp5065
Rp5066
(dp5067
g18
F0.5
sg19
I71
sg20
g0
(g21
g22
(dp5068
I00
I59
sI01
I12
stp5069
Rp5070
(dp5071
g19
I71
sg27
Nsg28
Nsg29
Nsbsg30
I3
sg31
F72.5
sbs(g8
Vcontains(fake)
p5072
tp5073
g0
(g14
g2
Ntp5074
Rp5075
(dp5076
g18
F0.5
sg19
I99
sg20
g0
(g21
g22
(dp5077
I00
I98
sI01
I1
stp5078
Rp5079
(dp5080
g19
I99
sg27
Nsg28
Nsg29
Nsbsg30
I3
sg31
F100.5
sbs(g9
Vcontains(aisq8chat)
p5081
tp5082
g0
(g14
g2
Ntp5083
Rp5084
(dp5085
g18
F0.5
sg19
I71
sg20
g0
(g21
g22
(dp5086
I00
I71
stp5087
Rp5088
(dp5089
g19
I71
sg27
Nsg28
Nsg29
Nsbsg30
I3
sg31
F72.5
sbs(g8
Vcontains(lover)
p5090
tp5091
g0
(g14
g2
Ntp5092
Rp5093
(dp5094
g18
F0.5
sg19
I99
sg20
g0
(g21
g22
(dp5095
I00
I96
sI01
I3
stp5096
Rp5097
(dp5098
g19
I99
sg27
Nsg28
Nsg29
Nsbsg30
I3
sg31
F100.5
sbs(g9
Vcontains(leaving)
p5099
tp5100
g0
(g14
g2
Ntp5101
Rp5102
(dp5103
g18
F0.5
sg19
I71
sg20
g0
(g21
g22
(dp5104
I00
I70
sI01
I1
stp5105
Rp5106
(dp5107
g19
I71
sg27
Nsg28
Nsg29
Nsbsg30
I3
sg31
F72.5
sbs(g8
Vcontains(act)
p5108
tp5109
g0
(g14
g2
Ntp5110
Rp5111
(dp5112
g18
F0.5
sg19
I99
sg20
g0
(g21
g22
(dp5113
I00
I99
stp5114
Rp5115
(dp5116
g19
I99
sg27
Nsg28
Nsg29
Nsbsg30
I3
sg31
F100.5
sbs(g8
Vcontains(fintan)
p5117
tp5118
g0
(g14
g2
Ntp5119
Rp5120
(dp5121
g18
F0.5
sg19
I99
sg20
g0
(g21
g22
(dp5122
I00
I98
sI01
I1
stp5123
Rp5124
(dp5125
g19
I99
sg27
Nsg28
Nsg29
Nsbsg30
I3
sg31
F100.5
sbs(g9
Vcontains(joe)
p5126
tp5127
g0
(g14
g2
Ntp5128
Rp5129
(dp5130
g18
F0.5
sg19
I71
sg20
g0
(g21
g22
(dp5131
I00
I70
sI01
I1
stp5132
Rp5133
(dp5134
g19
I71
sg27
Nsg28
Nsg29
Nsbsg30
I3
sg31
F72.5
sbs(g9
Vcontains(mein)
p5135
tp5136
g0
(g14
g2
Ntp5137
Rp5138
(dp5139
g18
F0.5
sg19
I71
sg20
g0
(g21
g22
(dp5140
I00
I71
stp5141
Rp5142
(dp5143
g19
I71
sg27
Nsg28
Nsg29
Nsbsg30
I3
sg31
F72.5
sbs(g8
Vcontains(afghan)
p5144
tp5145
g0
(g14
g2
Ntp5146
Rp5147
(dp5148
g18
F0.5
sg19
I99
sg20
g0
(g21
g22
(dp5149
I00
I99
stp5150
Rp5151
(dp5152
g19
I99
sg27
Nsg28
Nsg29
Nsbsg30
I3
sg31
F100.5
sbs(g8
Vcontains(aisq8)
p5153
tp5154
g0
(g14
g2
Ntp5155
Rp5156
(dp5157
g18
F0.5
sg19
I99
sg20
g0
(g21
g22
(dp5158
I00
I98
sI01
I1
stp5159
Rp5160
(dp5161
g19
I99
sg27
Nsg28
Nsg29
Nsbsg30
I3
sg31
F100.5
sbs(g8
Vcontains(grave)
p5162
tp5163
g0
(g14
g2
Ntp5164
Rp5165
(dp5166
g18
F0.5
sg19
I99
sg20
g0
(g21
g22
(dp5167
I00
I98
sI01
I1
stp5168
Rp5169
(dp5170
g19
I99
sg27
Nsg28
Nsg29
Nsbsg30
I3
sg31
F100.5
sbs(g8
Vcontains(apparently)
p5171
tp5172
g0
(g14
g2
Ntp5173
Rp5174
(dp5175
g18
F0.5
sg19
I99
sg20
g0
(g21
g22
(dp5176
I00
I98
sI01
I1
stp5177
Rp5178
(dp5179
g19
I99
sg27
Nsg28
Nsg29
Nsbsg30
I3
sg31
F100.5
sbs(g8
Vcontains(hundreds)
p5180
tp5181
g0
(g14
g2
Ntp5182
Rp5183
(dp5184
g18
F0.5
sg19
I99
sg20
g0
(g21
g22
(dp5185
I00
I97
sI01
I2
stp5186
Rp5187
(dp5188
g19
I99
sg27
Nsg28
Nsg29
Nsbsg30
I3
sg31
F100.5
sbs(g8
Vcontains(world)
p5189
tp5190
g0
(g14
g2
Ntp5191
Rp5192
(dp5193
g18
F0.5
sg19
I99
sg20
g0
(g21
g22
(dp5194
I00
I97
sI01
I2
stp5195
Rp5196
(dp5197
g19
I99
sg27
Nsg28
Nsg29
Nsbsg30
I3
sg31
F100.5
sbs(g8
Vcontains(am)
p5198
tp5199
g0
(g14
g2
Ntp5200
Rp5201
(dp5202
g18
F0.5
sg19
I99
sg20
g0
(g21
g22
(dp5203
I00
I98
sI01
I1
stp5204
Rp5205
(dp5206
g19
I99
sg27
Nsg28
Nsg29
Nsbsg30
I3
sg31
F100.5
sbs(g8
Vcontains(gauri)
p5207
tp5208
g0
(g14
g2
Ntp5209
Rp5210
(dp5211
g18
F0.5
sg19
I99
sg20
g0
(g21
g22
(dp5212
I00
I98
sI01
I1
stp5213
Rp5214
(dp5215
g19
I99
sg27
Nsg28
Nsg29
Nsbsg30
I3
sg31
F100.5
sbs(g9
Vcontains(people)
p5216
tp5217
g0
(g14
g2
Ntp5218
Rp5219
(dp5220
g18
F0.5
sg19
I71
sg20
g0
(g21
g22
(dp5221
I00
I70
sI01
I1
stp5222
Rp5223
(dp5224
g19
I71
sg27
Nsg28
Nsg29
Nsbsg30
I3
sg31
F72.5
sbs(g8
Vcontains(hello)
p5225
tp5226
g0
(g14
g2
Ntp5227
Rp5228
(dp5229
g18
F0.5
sg19
I99
sg20
g0
(g21
g22
(dp5230
I00
I98
sI01
I1
stp5231
Rp5232
(dp5233
g19
I99
sg27
Nsg28
Nsg29
Nsbsg30
I3
sg31
F100.5
sbs(g8
Vcontains(nba2k17)
p5234
tp5235
g0
(g14
g2
Ntp5236
Rp5237
(dp5238
g18
F0.5
sg19
I99
sg20
g0
(g21
g22
(dp5239
I00
I99
stp5240
Rp5241
(dp5242
g19
I99
sg27
Nsg28
Nsg29
Nsbsg30
I3
sg31
F100.5
sbs(g9
Vcontains(hot)
p5243
tp5244
g0
(g14
g2
Ntp5245
Rp5246
(dp5247
g18
F0.5
sg19
I71
sg20
g0
(g21
g22
(dp5248
I00
I71
stp5249
Rp5250
(dp5251
g19
I71
sg27
Nsg28
Nsg29
Nsbsg30
I3
sg31
F72.5
sbs(g8
Vcontains(mad)
p5252
tp5253
g0
(g14
g2
Ntp5254
Rp5255
(dp5256
g18
F0.5
sg19
I99
sg20
g0
(g21
g22
(dp5257
I00
I99
stp5258
Rp5259
(dp5260
g19
I99
sg27
Nsg28
Nsg29
Nsbsg30
I3
sg31
F100.5
sbs(g8
Vcontains(bla)
p5261
tp5262
g0
(g14
g2
Ntp5263
Rp5264
(dp5265
g18
F0.5
sg19
I99
sg20
g0
(g21
g22
(dp5266
I00
I98
sI01
I1
stp5267
Rp5268
(dp5269
g19
I99
sg27
Nsg28
Nsg29
Nsbsg30
I3
sg31
F100.5
sbs(g9
Vcontains(extraordinary)
p5270
tp5271
g0
(g14
g2
Ntp5272
Rp5273
(dp5274
g18
F0.5
sg19
I71
sg20
g0
(g21
g22
(dp5275
I00
I71
stp5276
Rp5277
(dp5278
g19
I71
sg27
Nsg28
Nsg29
Nsbsg30
I3
sg31
F72.5
sbs(g8
Vcontains(ba)
p5279
tp5280
g0
(g14
g2
Ntp5281
Rp5282
(dp5283
g18
F0.5
sg19
I99
sg20
g0
(g21
g22
(dp5284
I00
I98
sI01
I1
stp5285
Rp5286
(dp5287
g19
I99
sg27
Nsg28
Nsg29
Nsbsg30
I3
sg31
F100.5
sbs(g9
Vcontains(noctis)
p5288
tp5289
g0
(g14
g2
Ntp5290
Rp5291
(dp5292
g18
F0.5
sg19
I71
sg20
g0
(g21
g22
(dp5293
I00
I71
stp5294
Rp5295
(dp5296
g19
I71
sg27
Nsg28
Nsg29
Nsbsg30
I3
sg31
F72.5
sbs(g8
Vcontains(left)
p5297
tp5298
g0
(g14
g2
Ntp5299
Rp5300
(dp5301
g18
F0.5
sg19
I99
sg20
g0
(g21
g22
(dp5302
I00
I97
sI01
I2
stp5303
Rp5304
(dp5305
g19
I99
sg27
Nsg28
Nsg29
Nsbsg30
I3
sg31
F100.5
sbs(g9
Vcontains(krpkab)
p5306
tp5307
g0
(g14
g2
Ntp5308
Rp5309
(dp5310
g18
F0.5
sg19
I71
sg20
g0
(g21
g22
(dp5311
I00
I71
stp5312
Rp5313
(dp5314
g19
I71
sg27
Nsg28
Nsg29
Nsbsg30
I3
sg31
F72.5
sbs(g8
Vcontains(promotion)
p5315
tp5316
g0
(g14
g2
Ntp5317
Rp5318
(dp5319
g18
F0.5
sg19
I99
sg20
g0
(g21
g22
(dp5320
I00
I98
sI01
I1
stp5321
Rp5322
(dp5323
g19
I99
sg27
Nsg28
Nsg29
Nsbsg30
I3
sg31
F100.5
sbs(g9
Vcontains(chairman)
p5324
tp5325
g0
(g14
g2
Ntp5326
Rp5327
(dp5328
g18
F0.5
sg19
I71
sg20
g0
(g21
g22
(dp5329
I00
I70
sI01
I1
stp5330
Rp5331
(dp5332
g19
I71
sg27
Nsg28
Nsg29
Nsbsg30
I3
sg31
F72.5
sbs(g9
Vcontains(adversarial)
p5333
tp5334
g0
(g14
g2
Ntp5335
Rp5336
(dp5337
g18
F0.5
sg19
I71
sg20
g0
(g21
g22
(dp5338
I00
I70
sI01
I1
stp5339
Rp5340
(dp5341
g19
I71
sg27
Nsg28
Nsg29
Nsbsg30
I3
sg31
F72.5
sbs(g9
Vcontains(created)
p5342
tp5343
g0
(g14
g2
Ntp5344
Rp5345
(dp5346
g18
F0.5
sg19
I71
sg20
g0
(g21
g22
(dp5347
I00
I69
sI01
I2
stp5348
Rp5349
(dp5350
g19
I71
sg27
Nsg28
Nsg29
Nsbsg30
I3
sg31
F72.5
sbs(g9
Vcontains(examples)
p5351
tp5352
g0
(g14
g2
Ntp5353
Rp5354
(dp5355
g18
F0.5
sg19
I71
sg20
g0
(g21
g22
(dp5356
I00
I70
sI01
I1
stp5357
Rp5358
(dp5359
g19
I71
sg27
Nsg28
Nsg29
Nsbsg30
I3
sg31
F72.5
sbs(g9
Vcontains(clean)
p5360
tp5361
g0
(g14
g2
Ntp5362
Rp5363
(dp5364
g18
F0.5
sg19
I71
sg20
g0
(g21
g22
(dp5365
I00
I70
sI01
I1
stp5366
Rp5367
(dp5368
g19
I71
sg27
Nsg28
Nsg29
Nsbsg30
I3
sg31
F72.5
sbs(g8
Vcontains(punjab)
p5369
tp5370
g0
(g14
g2
Ntp5371
Rp5372
(dp5373
g18
F0.5
sg19
I99
sg20
g0
(g21
g22
(dp5374
I00
I99
stp5375
Rp5376
(dp5377
g19
I99
sg27
Nsg28
Nsg29
Nsbsg30
I3
sg31
F100.5
sbs(g8
Vcontains(day)
p5378
tp5379
g0
(g14
g2
Ntp5380
Rp5381
(dp5382
g18
F0.5
sg19
I99
sg20
g0
(g21
g22
(dp5383
I00
I98
sI01
I1
stp5384
Rp5385
(dp5386
g19
I99
sg27
Nsg28
Nsg29
Nsbsg30
I3
sg31
F100.5
sbs(g9
Vcontains(baby)
p5387
tp5388
g0
(g14
g2
Ntp5389
Rp5390
(dp5391
g18
F0.5
sg19
I71
sg20
g0
(g21
g22
(dp5392
I00
I70
sI01
I1
stp5393
Rp5394
(dp5395
g19
I71
sg27
Nsg28
Nsg29
Nsbsg30
I3
sg31
F72.5
sbs(g9
Vcontains(walk)
p5396
tp5397
g0
(g14
g2
Ntp5398
Rp5399
(dp5400
g18
F0.5
sg19
I71
sg20
g0
(g21
g22
(dp5401
I00
I71
stp5402
Rp5403
(dp5404
g19
I71
sg27
Nsg28
Nsg29
Nsbsg30
I3
sg31
F72.5
sbs(g9
Vcontains(peach)
p5405
tp5406
g0
(g14
g2
Ntp5407
Rp5408
(dp5409
g18
F0.5
sg19
I71
sg20
g0
(g21
g22
(dp5410
I00
I71
stp5411
Rp5412
(dp5413
g19
I71
sg27
Nsg28
Nsg29
Nsbsg30
I3
sg31
F72.5
sbs(g8
Vcontains(baseball)
p5414
tp5415
g0
(g14
g2
Ntp5416
Rp5417
(dp5418
g18
F0.5
sg19
I99
sg20
g0
(g21
g22
(dp5419
I00
I97
sI01
I2
stp5420
Rp5421
(dp5422
g19
I99
sg27
Nsg28
Nsg29
Nsbsg30
I3
sg31
F100.5
sbs(g8
Vcontains(wikileaks)
p5423
tp5424
g0
(g14
g2
Ntp5425
Rp5426
(dp5427
g18
F0.5
sg19
I99
sg20
g0
(g21
g22
(dp5428
I00
I97
sI01
I2
stp5429
Rp5430
(dp5431
g19
I99
sg27
Nsg28
Nsg29
Nsbsg30
I3
sg31
F100.5
sbs(g8
Vcontains(waits)
p5432
tp5433
g0
(g14
g2
Ntp5434
Rp5435
(dp5436
g18
F0.5
sg19
I99
sg20
g0
(g21
g22
(dp5437
I00
I98
sI01
I1
stp5438
Rp5439
(dp5440
g19
I99
sg27
Nsg28
Nsg29
Nsbsg30
I3
sg31
F100.5
sbs(g8
Vcontains(tuesday)
p5441
tp5442
g0
(g14
g2
Ntp5443
Rp5444
(dp5445
g18
F0.5
sg19
I99
sg20
g0
(g21
g22
(dp5446
I00
I98
sI01
I1
stp5447
Rp5448
(dp5449
g19
I99
sg27
Nsg28
Nsg29
Nsbsg30
I3
sg31
F100.5
sbs(g8
Vcontains(trp)
p5450
tp5451
g0
(g14
g2
Ntp5452
Rp5453
(dp5454
g18
F0.5
sg19
I99
sg20
g0
(g21
g22
(dp5455
I00
I98
sI01
I1
stp5456
Rp5457
(dp5458
g19
I99
sg27
Nsg28
Nsg29
Nsbsg30
I3
sg31
F100.5
sbs(g8
Vcontains(parehas)
p5459
tp5460
g0
(g14
g2
Ntp5461
Rp5462
(dp5463
g18
F0.5
sg19
I99
sg20
g0
(g21
g22
(dp5464
I00
I98
sI01
I1
stp5465
Rp5466
(dp5467
g19
I99
sg27
Nsg28
Nsg29
Nsbsg30
I3
sg31
F100.5
sbs(g9
Vcontains(rant)
p5468
tp5469
g0
(g14
g2
Ntp5470
Rp5471
(dp5472
g18
F0.5
sg19
I71
sg20
g0
(g21
g22
(dp5473
I00
I71
stp5474
Rp5475
(dp5476
g19
I71
sg27
Nsg28
Nsg29
Nsbsg30
I3
sg31
F72.5
sbs(g8
Vcontains(mate)
p5477
tp5478
g0
(g14
g2
Ntp5479
Rp5480
(dp5481
g18
F0.5
sg19
I99
sg20
g0
(g21
g22
(dp5482
I00
I99
stp5483
Rp5484
(dp5485
g19
I99
sg27
Nsg28
Nsg29
Nsbsg30
I3
sg31
F100.5
sbs(g9
Vcontains(draped)
p5486
tp5487
g0
(g14
g2
Ntp5488
Rp5489
(dp5490
g18
F0.5
sg19
I71
sg20
g0
(g21
g22
(dp5491
I00
I70
sI01
I1
stp5492
Rp5493
(dp5494
g19
I71
sg27
Nsg28
Nsg29
Nsbsg30
I3
sg31
F72.5
sbs(g9
Vcontains(detecting)
p5495
tp5496
g0
(g14
g2
Ntp5497
Rp5498
(dp5499
g18
F0.5
sg19
I71
sg20
g0
(g21
g22
(dp5500
I00
I70
sI01
I1
stp5501
Rp5502
(dp5503
g19
I71
sg27
Nsg28
Nsg29
Nsbsg30
I3
sg31
F72.5
sbs(g8
Vcontains(due)
p5504
tp5505
g0
(g14
g2
Ntp5506
Rp5507
(dp5508
g18
F0.5
sg19
I99
sg20
g0
(g21
g22
(dp5509
I00
I98
sI01
I1
stp5510
Rp5511
(dp5512
g19
I99
sg27
Nsg28
Nsg29
Nsbsg30
I3
sg31
F100.5
sbs(g9
Vcontains(im)
p5513
tp5514
g0
(g14
g2
Ntp5515
Rp5516
(dp5517
g18
F0.5
sg19
I71
sg20
g0
(g21
g22
(dp5518
I00
I70
sI01
I1
stp5519
Rp5520
(dp5521
g19
I71
sg27
Nsg28
Nsg29
Nsbsg30
I3
sg31
F72.5
sbs(g9
Vcontains(counselor)
p5522
tp5523
g0
(g14
g2
Ntp5524
Rp5525
(dp5526
g18
F0.5
sg19
I71
sg20
g0
(g21
g22
(dp5527
I00
I70
sI01
I1
stp5528
Rp5529
(dp5530
g19
I71
sg27
Nsg28
Nsg29
Nsbsg30
I3
sg31
F72.5
sbs(g8
Vcontains(lmao)
p5531
tp5532
g0
(g14
g2
Ntp5533
Rp5534
(dp5535
g18
F0.5
sg19
I99
sg20
g0
(g21
g22
(dp5536
I00
I99
stp5537
Rp5538
(dp5539
g19
I99
sg27
Nsg28
Nsg29
Nsbsg30
I3
sg31
F100.5
sbs(g9
Vcontains(collapsed)
p5540
tp5541
g0
(g14
g2
Ntp5542
Rp5543
(dp5544
g18
F0.5
sg19
I71
sg20
g0
(g21
g22
(dp5545
I00
I70
sI01
I1
stp5546
Rp5547
(dp5548
g19
I71
sg27
Nsg28
Nsg29
Nsbsg30
I3
sg31
F72.5
sbs(g9
Vcontains(release)
p5549
tp5550
g0
(g14
g2
Ntp5551
Rp5552
(dp5553
g18
F0.5
sg19
I71
sg20
g0
(g21
g22
(dp5554
I00
I70
sI01
I1
stp5555
Rp5556
(dp5557
g19
I71
sg27
Nsg28
Nsg29
Nsbsg30
I3
sg31
F72.5
sbs(g8
Vcontains(violated)
p5558
tp5559
g0
(g14
g2
Ntp5560
Rp5561
(dp5562
g18
F0.5
sg19
I99
sg20
g0
(g21
g22
(dp5563
I00
I99
stp5564
Rp5565
(dp5566
g19
I99
sg27
Nsg28
Nsg29
Nsbsg30
I3
sg31
F100.5
sbs(g8
Vcontains(follow)
p5567
tp5568
g0
(g14
g2
Ntp5569
Rp5570
(dp5571
g18
F0.5
sg19
I99
sg20
g0
(g21
g22
(dp5572
I00
I99
stp5573
Rp5574
(dp5575
g19
I99
sg27
Nsg28
Nsg29
Nsbsg30
I3
sg31
F100.5
sbs(g9
Vcontains(ya)
p5576
tp5577
g0
(g14
g2
Ntp5578
Rp5579
(dp5580
g18
F0.5
sg19
I71
sg20
g0
(g21
g22
(dp5581
I00
I71
stp5582
Rp5583
(dp5584
g19
I71
sg27
Nsg28
Nsg29
Nsbsg30
I3
sg31
F72.5
sbs(g9
Vcontains(god)
p5585
tp5586
g0
(g14
g2
Ntp5587
Rp5588
(dp5589
g18
F0.5
sg19
I71
sg20
g0
(g21
g22
(dp5590
I00
I70
sI01
I1
stp5591
Rp5592
(dp5593
g19
I71
sg27
Nsg28
Nsg29
Nsbsg30
I3
sg31
F72.5
sbs(g8
Vcontains(spend)
p5594
tp5595
g0
(g14
g2
Ntp5596
Rp5597
(dp5598
g18
F0.5
sg19
I99
sg20
g0
(g21
g22
(dp5599
I00
I99
stp5600
Rp5601
(dp5602
g19
I99
sg27
Nsg28
Nsg29
Nsbsg30
I3
sg31
F100.5
sbs(g8
Vcontains(mohammad)
p5603
tp5604
g0
(g14
g2
Ntp5605
Rp5606
(dp5607
g18
F0.5
sg19
I99
sg20
g0
(g21
g22
(dp5608
I00
I98
sI01
I1
stp5609
Rp5610
(dp5611
g19
I99
sg27
Nsg28
Nsg29
Nsbsg30
I3
sg31
F100.5
sbs(g8
Vcontains(dying)
p5612
tp5613
g0
(g14
g2
Ntp5614
Rp5615
(dp5616
g18
F0.5
sg19
I99
sg20
g0
(g21
g22
(dp5617
I00
I98
sI01
I1
stp5618
Rp5619
(dp5620
g19
I99
sg27
Nsg28
Nsg29
Nsbsg30
I3
sg31
F100.5
sbs(g8
Vcontains(tonight)
p5621
tp5622
g0
(g14
g2
Ntp5623
Rp5624
(dp5625
g18
F0.5
sg19
I99
sg20
g0
(g21
g22
(dp5626
I00
I97
sI01
I2
stp5627
Rp5628
(dp5629
g19
I99
sg27
Nsg28
Nsg29
Nsbsg30
I3
sg31
F100.5
sbs(g9
Vcontains(travel)
p5630
tp5631
g0
(g14
g2
Ntp5632
Rp5633
(dp5634
g18
F0.5
sg19
I71
sg20
g0
(g21
g22
(dp5635
I00
I71
stp5636
Rp5637
(dp5638
g19
I71
sg27
Nsg28
Nsg29
Nsbsg30
I3
sg31
F72.5
sbs(g8
Vcontains(methods)
p5639
tp5640
g0
(g14
g2
Ntp5641
Rp5642
(dp5643
g18
F0.5
sg19
I99
sg20
g0
(g21
g22
(dp5644
I00
I99
stp5645
Rp5646
(dp5647
g19
I99
sg27
Nsg28
Nsg29
Nsbsg30
I3
sg31
F100.5
sbs(g9
Vcontains(tech)
p5648
tp5649
g0
(g14
g2
Ntp5650
Rp5651
(dp5652
g18
F0.5
sg19
I71
sg20
g0
(g21
g22
(dp5653
I00
I70
sI01
I1
stp5654
Rp5655
(dp5656
g19
I71
sg27
Nsg28
Nsg29
Nsbsg30
I3
sg31
F72.5
sbs(g9
Vcontains(time)
p5657
tp5658
g0
(g14
g2
Ntp5659
Rp5660
(dp5661
g18
F0.5
sg19
I71
sg20
g0
(g21
g22
(dp5662
I00
I69
sI01
I2
stp5663
Rp5664
(dp5665
g19
I71
sg27
Nsg28
Nsg29
Nsbsg30
I3
sg31
F72.5
sbs(g9
Vcontains(style)
p5666
tp5667
g0
(g14
g2
Ntp5668
Rp5669
(dp5670
g18
F0.5
sg19
I71
sg20
g0
(g21
g22
(dp5671
I00
I70
sI01
I1
stp5672
Rp5673
(dp5674
g19
I71
sg27
Nsg28
Nsg29
Nsbsg30
I3
sg31
F72.5
sbs(g8
Vcontains(prove)
p5675
tp5676
g0
(g14
g2
Ntp5677
Rp5678
(dp5679
g18
F0.5
sg19
I99
sg20
g0
(g21
g22
(dp5680
I00
I98
sI01
I1
stp5681
Rp5682
(dp5683
g19
I99
sg27
Nsg28
Nsg29
Nsbsg30
I3
sg31
F100.5
sbs(g8
Vcontains(arc)
p5684
tp5685
g0
(g14
g2
Ntp5686
Rp5687
(dp5688
g18
F0.5
sg19
I99
sg20
g0
(g21
g22
(dp5689
I00
I99
stp5690
Rp5691
(dp5692
g19
I99
sg27
Nsg28
Nsg29
Nsbsg30
I3
sg31
F100.5
sbs(g8
Vcontains(colwyn)
p5693
tp5694
g0
(g14
g2
Ntp5695
Rp5696
(dp5697
g18
F0.5
sg19
I99
sg20
g0
(g21
g22
(dp5698
I00
I99
stp5699
Rp5700
(dp5701
g19
I99
sg27
Nsg28
Nsg29
Nsbsg30
I3
sg31
F100.5
sbs(g8
Vcontains(wizkid)
p5702
tp5703
g0
(g14
g2
Ntp5704
Rp5705
(dp5706
g18
F0.5
sg19
I99
sg20
g0
(g21
g22
(dp5707
I00
I99
stp5708
Rp5709
(dp5710
g19
I99
sg27
Nsg28
Nsg29
Nsbsg30
I3
sg31
F100.5
sbs(g9
Vcontains(die)
p5711
tp5712
g0
(g14
g2
Ntp5713
Rp5714
(dp5715
g18
F0.5
sg19
I71
sg20
g0
(g21
g22
(dp5716
I00
I70
sI01
I1
stp5717
Rp5718
(dp5719
g19
I71
sg27
Nsg28
Nsg29
Nsbsg30
I3
sg31
F72.5
sbs(g8
Vcontains(fucked)
p5720
tp5721
g0
(g14
g2
Ntp5722
Rp5723
(dp5724
g18
F0.5
sg19
I99
sg20
g0
(g21
g22
(dp5725
I00
I98
sI01
I1
stp5726
Rp5727
(dp5728
g19
I99
sg27
Nsg28
Nsg29
Nsbsg30
I3
sg31
F100.5
sbs(g9
Vcontains(footage)
p5729
tp5730
g0
(g14
g2
Ntp5731
Rp5732
(dp5733
g18
F0.5
sg19
I71
sg20
g0
(g21
g22
(dp5734
I00
I70
sI01
I1
stp5735
Rp5736
(dp5737
g19
I71
sg27
Nsg28
Nsg29
Nsbsg30
I3
sg31
F72.5
sbs(g8
Vcontains(googlei)
p5738
tp5739
g0
(g14
g2
Ntp5740
Rp5741
(dp5742
g18
F0.5
sg19
I99
sg20
g0
(g21
g22
(dp5743
I00
I99
stp5744
Rp5745
(dp5746
g19
I99
sg27
Nsg28
Nsg29
Nsbsg30
I3
sg31
F100.5
sbs(g9
Vcontains(sadqay)
p5747
tp5748
g0
(g14
g2
Ntp5749
Rp5750
(dp5751
g18
F0.5
sg19
I71
sg20
g0
(g21
g22
(dp5752
I00
I71
stp5753
Rp5754
(dp5755
g19
I71
sg27
Nsg28
Nsg29
Nsbsg30
I3
sg31
F72.5
sbs(g8
Vcontains(posted)
p5756
tp5757
g0
(g14
g2
Ntp5758
Rp5759
(dp5760
g18
F0.5
sg19
I99
sg20
g0
(g21
g22
(dp5761
I00
I98
sI01
I1
stp5762
Rp5763
(dp5764
g19
I99
sg27
Nsg28
Nsg29
Nsbsg30
I3
sg31
F100.5
sbs(g8
Vcontains(house)
p5765
tp5766
g0
(g14
g2
Ntp5767
Rp5768
(dp5769
g18
F0.5
sg19
I99
sg20
g0
(g21
g22
(dp5770
I00
I99
stp5771
Rp5772
(dp5773
g19
I99
sg27
Nsg28
Nsg29
Nsbsg30
I3
sg31
F100.5
sbs(g8
Vcontains(post)
p5774
tp5775
g0
(g14
g2
Ntp5776
Rp5777
(dp5778
g18
F0.5
sg19
I99
sg20
g0
(g21
g22
(dp5779
I00
I99
stp5780
Rp5781
(dp5782
g19
I99
sg27
Nsg28
Nsg29
Nsbsg30
I3
sg31
F100.5
sbs(g9
Vcontains(bauchi)
p5783
tp5784
g0
(g14
g2
Ntp5785
Rp5786
(dp5787
g18
F0.5
sg19
I71
sg20
g0
(g21
g22
(dp5788
I00
I70
sI01
I1
stp5789
Rp5790
(dp5791
g19
I71
sg27
Nsg28
Nsg29
Nsbsg30
I3
sg31
F72.5
sbs(g9
Vcontains(join)
p5792
tp5793
g0
(g14
g2
Ntp5794
Rp5795
(dp5796
g18
F0.5
sg19
I71
sg20
g0
(g21
g22
(dp5797
I00
I71
stp5798
Rp5799
(dp5800
g19
I71
sg27
Nsg28
Nsg29
Nsbsg30
I3
sg31
F72.5
sbs(g8
Vcontains(ultimate)
p5801
tp5802
g0
(g14
g2
Ntp5803
Rp5804
(dp5805
g18
F0.5
sg19
I99
sg20
g0
(g21
g22
(dp5806
I00
I99
stp5807
Rp5808
(dp5809
g19
I99
sg27
Nsg28
Nsg29
Nsbsg30
I3
sg31
F100.5
sbs(g9
Vcontains(kpk)
p5810
tp5811
g0
(g14
g2
Ntp5812
Rp5813
(dp5814
g18
F0.5
sg19
I71
sg20
g0
(g21
g22
(dp5815
I00
I70
sI01
I1
stp5816
Rp5817
(dp5818
g19
I71
sg27
Nsg28
Nsg29
Nsbsg30
I3
sg31
F72.5
sbs(g9
Vcontains(a1)
p5819
tp5820
g0
(g14
g2
Ntp5821
Rp5822
(dp5823
g18
F0.5
sg19
I71
sg20
g0
(g21
g22
(dp5824
I00
I70
sI01
I1
stp5825
Rp5826
(dp5827
g19
I71
sg27
Nsg28
Nsg29
Nsbsg30
I3
sg31
F72.5
sbs(g9
Vcontains(pee)
p5828
tp5829
g0
(g14
g2
Ntp5830
Rp5831
(dp5832
g18
F0.5
sg19
I71
sg20
g0
(g21
g22
(dp5833
I00
I70
sI01
I1
stp5834
Rp5835
(dp5836
g19
I71
sg27
Nsg28
Nsg29
Nsbsg30
I3
sg31
F72.5
sbs(g8
Vcontains(twinks)
p5837
tp5838
g0
(g14
g2
Ntp5839
Rp5840
(dp5841
g18
F0.5
sg19
I99
sg20
g0
(g21
g22
(dp5842
I00
I99
stp5843
Rp5844
(dp5845
g19
I99
sg27
Nsg28
Nsg29
Nsbsg30
I3
sg31
F100.5
sbs(g8
Vcontains(everyday)
p5846
tp5847
g0
(g14
g2
Ntp5848
Rp5849
(dp5850
g18
F0.5
sg19
I99
sg20
g0
(g21
g22
(dp5851
I00
I97
sI01
I2
stp5852
Rp5853
(dp5854
g19
I99
sg27
Nsg28
Nsg29
Nsbsg30
I3
sg31
F100.5
sbs(g9
Vcontains(save)
p5855
tp5856
g0
(g14
g2
Ntp5857
Rp5858
(dp5859
g18
F0.5
sg19
I71
sg20
g0
(g21
g22
(dp5860
I00
I70
sI01
I1
stp5861
Rp5862
(dp5863
g19
I71
sg27
Nsg28
Nsg29
Nsbsg30
I3
sg31
F72.5
sbs(g9
Vcontains(twitter)
p5864
tp5865
g0
(g14
g2
Ntp5866
Rp5867
(dp5868
g18
F0.5
sg19
I71
sg20
g0
(g21
g22
(dp5869
I00
I70
sI01
I1
stp5870
Rp5871
(dp5872
g19
I71
sg27
Nsg28
Nsg29
Nsbsg30
I3
sg31
F72.5
sbs(g9
Vcontains(yall)
p5873
tp5874
g0
(g14
g2
Ntp5875
Rp5876
(dp5877
g18
F0.5
sg19
I71
sg20
g0
(g21
g22
(dp5878
I00
I70
sI01
I1
stp5879
Rp5880
(dp5881
g19
I71
sg27
Nsg28
Nsg29
Nsbsg30
I3
sg31
F72.5
sbs(g8
Vcontains(achieved)
p5882
tp5883
g0
(g14
g2
Ntp5884
Rp5885
(dp5886
g18
F0.5
sg19
I99
sg20
g0
(g21
g22
(dp5887
I00
I98
sI01
I1
stp5888
Rp5889
(dp5890
g19
I99
sg27
Nsg28
Nsg29
Nsbsg30
I3
sg31
F100.5
sbs(g8
Vcontains(feels)
p5891
tp5892
g0
(g14
g2
Ntp5893
Rp5894
(dp5895
g18
F0.5
sg19
I99
sg20
g0
(g21
g22
(dp5896
I00
I98
sI01
I1
stp5897
Rp5898
(dp5899
g19
I99
sg27
Nsg28
Nsg29
Nsbsg30
I3
sg31
F100.5
sbs(g8
Vcontains(lah)
p5900
tp5901
g0
(g14
g2
Ntp5902
Rp5903
(dp5904
g18
F0.5
sg19
I99
sg20
g0
(g21
g22
(dp5905
I00
I99
stp5906
Rp5907
(dp5908
g19
I99
sg27
Nsg28
Nsg29
Nsbsg30
I3
sg31
F100.5
sbs(g9
Vcontains(cnnleaks)
p5909
tp5910
g0
(g14
g2
Ntp5911
Rp5912
(dp5913
g18
F0.5
sg19
I71
sg20
g0
(g21
g22
(dp5914
I00
I68
sI01
I3
stp5915
Rp5916
(dp5917
g19
I71
sg27
Nsg28
Nsg29
Nsbsg30
I3
sg31
F72.5
sbs(g9
Vcontains(shin)
p5918
tp5919
g0
(g14
g2
Ntp5920
Rp5921
(dp5922
g18
F0.5
sg19
I71
sg20
g0
(g21
g22
(dp5923
I00
I71
stp5924
Rp5925
(dp5926
g19
I71
sg27
Nsg28
Nsg29
Nsbsg30
I3
sg31
F72.5
sbs(g8
Vcontains(usually)
p5927
tp5928
g0
(g14
g2
Ntp5929
Rp5930
(dp5931
g18
F0.5
sg19
I99
sg20
g0
(g21
g22
(dp5932
I00
I99
stp5933
Rp5934
(dp5935
g19
I99
sg27
Nsg28
Nsg29
Nsbsg30
I3
sg31
F100.5
sbs(g8
Vcontains(wont)
p5936
tp5937
g0
(g14
g2
Ntp5938
Rp5939
(dp5940
g18
F0.5
sg19
I99
sg20
g0
(g21
g22
(dp5941
I00
I99
stp5942
Rp5943
(dp5944
g19
I99
sg27
Nsg28
Nsg29
Nsbsg30
I3
sg31
F100.5
sbs(g9
Vcontains(lion)
p5945
tp5946
g0
(g14
g2
Ntp5947
Rp5948
(dp5949
g18
F0.5
sg19
I71
sg20
g0
(g21
g22
(dp5950
I00
I70
sI01
I1
stp5951
Rp5952
(dp5953
g19
I71
sg27
Nsg28
Nsg29
Nsbsg30
I3
sg31
F72.5
sbs(g9
Vcontains(ripped)
p5954
tp5955
g0
(g14
g2
Ntp5956
Rp5957
(dp5958
g18
F0.5
sg19
I71
sg20
g0
(g21
g22
(dp5959
I00
I70
sI01
I1
stp5960
Rp5961
(dp5962
g19
I71
sg27
Nsg28
Nsg29
Nsbsg30
I3
sg31
F72.5
sbs(g9
Vcontains(pole)
p5963
tp5964
g0
(g14
g2
Ntp5965
Rp5966
(dp5967
g18
F0.5
sg19
I71
sg20
g0
(g21
g22
(dp5968
I00
I71
stp5969
Rp5970
(dp5971
g19
I71
sg27
Nsg28
Nsg29
Nsbsg30
I3
sg31
F72.5
sbs(g8
Vcontains(bigolive)
p5972
tp5973
g0
(g14
g2
Ntp5974
Rp5975
(dp5976
g18
F0.5
sg19
I99
sg20
g0
(g21
g22
(dp5977
I00
I97
sI01
I2
stp5978
Rp5979
(dp5980
g19
I99
sg27
Nsg28
Nsg29
Nsbsg30
I3
sg31
F100.5
sbs(g9
Vcontains(dick)
p5981
tp5982
g0
(g14
g2
Ntp5983
Rp5984
(dp5985
g18
F0.5
sg19
I71
sg20
g0
(g21
g22
(dp5986
I00
I71
stp5987
Rp5988
(dp5989
g19
I71
sg27
Nsg28
Nsg29
Nsbsg30
I3
sg31
F72.5
sbs(g9
Vcontains(hate)
p5990
tp5991
g0
(g14
g2
Ntp5992
Rp5993
(dp5994
g18
F0.5
sg19
I71
sg20
g0
(g21
g22
(dp5995
I00
I70
sI01
I1
stp5996
Rp5997
(dp5998
g19
I71
sg27
Nsg28
Nsg29
Nsbsg30
I3
sg31
F72.5
sbs(g8
Vcontains(aisq8chat)
p5999
tp6000
g0
(g14
g2
Ntp6001
Rp6002
(dp6003
g18
F0.5
sg19
I99
sg20
g0
(g21
g22
(dp6004
I00
I98
sI01
I1
stp6005
Rp6006
(dp6007
g19
I99
sg27
Nsg28
Nsg29
Nsbsg30
I3
sg31
F100.5
sbs(g8
Vcontains(tape)
p6008
tp6009
g0
(g14
g2
Ntp6010
Rp6011
(dp6012
g18
F0.5
sg19
I99
sg20
g0
(g21
g22
(dp6013
I00
I99
stp6014
Rp6015
(dp6016
g19
I99
sg27
Nsg28
Nsg29
Nsbsg30
I3
sg31
F100.5
sbs(g9
Vcontains(conway)
p6017
tp6018
g0
(g14
g2
Ntp6019
Rp6020
(dp6021
g18
F0.5
sg19
I71
sg20
g0
(g21
g22
(dp6022
I00
I70
sI01
I1
stp6023
Rp6024
(dp6025
g19
I71
sg27
Nsg28
Nsg29
Nsbsg30
I3
sg31
F72.5
sbs(g8
Vcontains(told)
p6026
tp6027
g0
(g14
g2
Ntp6028
Rp6029
(dp6030
g18
F0.5
sg19
I99
sg20
g0
(g21
g22
(dp6031
I00
I99
stp6032
Rp6033
(dp6034
g19
I99
sg27
Nsg28
Nsg29
Nsbsg30
I3
sg31
F100.5
sbs(g8
Vcontains(movie)
p6035
tp6036
g0
(g14
g2
Ntp6037
Rp6038
(dp6039
g18
F0.5
sg19
I99
sg20
g0
(g21
g22
(dp6040
I00
I97
sI01
I2
stp6041
Rp6042
(dp6043
g19
I99
sg27
Nsg28
Nsg29
Nsbsg30
I3
sg31
F100.5
sbs(g9
Vcontains(springday2ndwin)
p6044
tp6045
g0
(g14
g2
Ntp6046
Rp6047
(dp6048
g18
F0.5
sg19
I71
sg20
g0
(g21
g22
(dp6049
I00
I71
stp6050
Rp6051
(dp6052
g19
I71
sg27
Nsg28
Nsg29
Nsbsg30
I3
sg31
F72.5
sbs(g9
Vcontains(love)
p6053
tp6054
g0
(g14
g2
Ntp6055
Rp6056
(dp6057
g18
F0.5
sg19
I71
sg20
g0
(g21
g22
(dp6058
I00
I70
sI01
I1
stp6059
Rp6060
(dp6061
g19
I71
sg27
Nsg28
Nsg29
Nsbsg30
I3
sg31
F72.5
sbs(g9
Vcontains(retweeted)
p6062
tp6063
g0
(g14
g2
Ntp6064
Rp6065
(dp6066
g18
F0.5
sg19
I71
sg20
g0
(g21
g22
(dp6067
I00
I71
stp6068
Rp6069
(dp6070
g19
I71
sg27
Nsg28
Nsg29
Nsbsg30
I3
sg31
F72.5
sbs(g9
Vcontains(scrr)
p6071
tp6072
g0
(g14
g2
Ntp6073
Rp6074
(dp6075
g18
F0.5
sg19
I71
sg20
g0
(g21
g22
(dp6076
I00
I71
stp6077
Rp6078
(dp6079
g19
I71
sg27
Nsg28
Nsg29
Nsbsg30
I3
sg31
F72.5
sbs(g8
Vcontains(leads)
p6080
tp6081
g0
(g14
g2
Ntp6082
Rp6083
(dp6084
g18
F0.5
sg19
I99
sg20
g0
(g21
g22
(dp6085
I00
I98
sI01
I1
stp6086
Rp6087
(dp6088
g19
I99
sg27
Nsg28
Nsg29
Nsbsg30
I3
sg31
F100.5
sbs(g9
Vcontains(smoke)
p6089
tp6090
g0
(g14
g2
Ntp6091
Rp6092
(dp6093
g18
F0.5
sg19
I71
sg20
g0
(g21
g22
(dp6094
I00
I70
sI01
I1
stp6095
Rp6096
(dp6097
g19
I71
sg27
Nsg28
Nsg29
Nsbsg30
I3
sg31
F72.5
sbs(g9
Vcontains(brother)
p6098
tp6099
g0
(g14
g2
Ntp6100
Rp6101
(dp6102
g18
F0.5
sg19
I71
sg20
g0
(g21
g22
(dp6103
I00
I70
sI01
I1
stp6104
Rp6105
(dp6106
g19
I71
sg27
Nsg28
Nsg29
Nsbsg30
I3
sg31
F72.5
sbs(g8
Vcontains(book)
p6107
tp6108
g0
(g14
g2
Ntp6109
Rp6110
(dp6111
g18
F0.5
sg19
I99
sg20
g0
(g21
g22
(dp6112
I00
I99
stp6113
Rp6114
(dp6115
g19
I99
sg27
Nsg28
Nsg29
Nsbsg30
I3
sg31
F100.5
sbs(g8
Vcontains(figure)
p6116
tp6117
g0
(g14
g2
Ntp6118
Rp6119
(dp6120
g18
F0.5
sg19
I99
sg20
g0
(g21
g22
(dp6121
I00
I98
sI01
I1
stp6122
Rp6123
(dp6124
g19
I99
sg27
Nsg28
Nsg29
Nsbsg30
I3
sg31
F100.5
sbs(g8
Vcontains(seeing)
p6125
tp6126
g0
(g14
g2
Ntp6127
Rp6128
(dp6129
g18
F0.5
sg19
I99
sg20
g0
(g21
g22
(dp6130
I00
I98
sI01
I1
stp6131
Rp6132
(dp6133
g19
I99
sg27
Nsg28
Nsg29
Nsbsg30
I3
sg31
F100.5
sbs(g9
Vcontains(saturday)
p6134
tp6135
g0
(g14
g2
Ntp6136
Rp6137
(dp6138
g18
F0.5
sg19
I71
sg20
g0
(g21
g22
(dp6139
I00
I70
sI01
I1
stp6140
Rp6141
(dp6142
g19
I71
sg27
Nsg28
Nsg29
Nsbsg30
I3
sg31
F72.5
sbs(g8
Vcontains(evk)
p6143
tp6144
g0
(g14
g2
Ntp6145
Rp6146
(dp6147
g18
F0.5
sg19
I99
sg20
g0
(g21
g22
(dp6148
I00
I99
stp6149
Rp6150
(dp6151
g19
I99
sg27
Nsg28
Nsg29
Nsbsg30
I3
sg31
F100.5
sbs(g8
Vcontains(favorite)
p6152
tp6153
g0
(g14
g2
Ntp6154
Rp6155
(dp6156
g18
F0.5
sg19
I99
sg20
g0
(g21
g22
(dp6157
I00
I99
stp6158
Rp6159
(dp6160
g19
I99
sg27
Nsg28
Nsg29
Nsbsg30
I3
sg31
F100.5
sbs(g9
Vcontains(tendency)
p6161
tp6162
g0
(g14
g2
Ntp6163
Rp6164
(dp6165
g18
F0.5
sg19
I71
sg20
g0
(g21
g22
(dp6166
I00
I70
sI01
I1
stp6167
Rp6168
(dp6169
g19
I71
sg27
Nsg28
Nsg29
Nsbsg30
I3
sg31
F72.5
sbs(g8
Vcontains(date)
p6170
tp6171
g0
(g14
g2
Ntp6172
Rp6173
(dp6174
g18
F0.5
sg19
I99
sg20
g0
(g21
g22
(dp6175
I00
I99
stp6176
Rp6177
(dp6178
g19
I99
sg27
Nsg28
Nsg29
Nsbsg30
I3
sg31
F100.5
sbs(g8
Vcontains(chambers)
p6179
tp6180
g0
(g14
g2
Ntp6181
Rp6182
(dp6183
g18
F0.5
sg19
I99
sg20
g0
(g21
g22
(dp6184
I00
I98
sI01
I1
stp6185
Rp6186
(dp6187
g19
I99
sg27
Nsg28
Nsg29
Nsbsg30
I3
sg31
F100.5
sbs(g9
Vcontains(inefficiency)
p6188
tp6189
g0
(g14
g2
Ntp6190
Rp6191
(dp6192
g18
F0.5
sg19
I71
sg20
g0
(g21
g22
(dp6193
I00
I70
sI01
I1
stp6194
Rp6195
(dp6196
g19
I71
sg27
Nsg28
Nsg29
Nsbsg30
I3
sg31
F72.5
sbs(g9
Vcontains(knicks)
p6197
tp6198
g0
(g14
g2
Ntp6199
Rp6200
(dp6201
g18
F0.5
sg19
I71
sg20
g0
(g21
g22
(dp6202
I00
I70
sI01
I1
stp6203
Rp6204
(dp6205
g19
I71
sg27
Nsg28
Nsg29
Nsbsg30
I3
sg31
F72.5
sbs(g8
Vcontains(govt)
p6206
tp6207
g0
(g14
g2
Ntp6208
Rp6209
(dp6210
g18
F0.5
sg19
I99
sg20
g0
(g21
g22
(dp6211
I00
I99
stp6212
Rp6213
(dp6214
g19
I99
sg27
Nsg28
Nsg29
Nsbsg30
I3
sg31
F100.5
sbs(g8
Vcontains(np)
p6215
tp6216
g0
(g14
g2
Ntp6217
Rp6218
(dp6219
g18
F0.5
sg19
I99
sg20
g0
(g21
g22
(dp6220
I00
I99
stp6221
Rp6222
(dp6223
g19
I99
sg27
Nsg28
Nsg29
Nsbsg30
I3
sg31
F100.5
sbs(g9
Vcontains(sunday)
p6224
tp6225
g0
(g14
g2
Ntp6226
Rp6227
(dp6228
g18
F0.5
sg19
I71
sg20
g0
(g21
g22
(dp6229
I00
I70
sI01
I1
stp6230
Rp6231
(dp6232
g19
I71
sg27
Nsg28
Nsg29
Nsbsg30
I3
sg31
F72.5
sbs(g8
Vcontains(baby)
p6233
tp6234
g0
(g14
g2
Ntp6235
Rp6236
(dp6237
g18
F0.5
sg19
I99
sg20
g0
(g21
g22
(dp6238
I00
I98
sI01
I1
stp6239
Rp6240
(dp6241
g19
I99
sg27
Nsg28
Nsg29
Nsbsg30
I3
sg31
F100.5
sbs(g9
Vcontains(wounded)
p6242
tp6243
g0
(g14
g2
Ntp6244
Rp6245
(dp6246
g18
F0.5
sg19
I71
sg20
g0
(g21
g22
(dp6247
I00
I71
stp6248
Rp6249
(dp6250
g19
I71
sg27
Nsg28
Nsg29
Nsbsg30
I3
sg31
F72.5
sbs(g9
Vcontains(trained)
p6251
tp6252
g0
(g14
g2
Ntp6253
Rp6254
(dp6255
g18
F0.5
sg19
I71
sg20
g0
(g21
g22
(dp6256
I00
I70
sI01
I1
stp6257
Rp6258
(dp6259
g19
I71
sg27
Nsg28
Nsg29
Nsbsg30
I3
sg31
F72.5
sbs(g9
Vcontains(won)
p6260
tp6261
g0
(g14
g2
Ntp6262
Rp6263
(dp6264
g18
F0.5
sg19
I71
sg20
g0
(g21
g22
(dp6265
I00
I71
stp6266
Rp6267
(dp6268
g19
I71
sg27
Nsg28
Nsg29
Nsbsg30
I3
sg31
F72.5
sbs(g9
Vcontains(blood)
p6269
tp6270
g0
(g14
g2
Ntp6271
Rp6272
(dp6273
g18
F0.5
sg19
I71
sg20
g0
(g21
g22
(dp6274
I00
I70
sI01
I1
stp6275
Rp6276
(dp6277
g19
I71
sg27
Nsg28
Nsg29
Nsbsg30
I3
sg31
F72.5
sbs(g9
Vcontains(rosie)
p6278
tp6279
g0
(g14
g2
Ntp6280
Rp6281
(dp6282
g18
F0.5
sg19
I71
sg20
g0
(g21
g22
(dp6283
I00
I70
sI01
I1
stp6284
Rp6285
(dp6286
g19
I71
sg27
Nsg28
Nsg29
Nsbsg30
I3
sg31
F72.5
sbs(g9
Vcontains(virgin)
p6287
tp6288
g0
(g14
g2
Ntp6289
Rp6290
(dp6291
g18
F0.5
sg19
I71
sg20
g0
(g21
g22
(dp6292
I00
I71
stp6293
Rp6294
(dp6295
g19
I71
sg27
Nsg28
Nsg29
Nsbsg30
I3
sg31
F72.5
sbs(g8
Vcontains(girl)
p6296
tp6297
g0
(g14
g2
Ntp6298
Rp6299
(dp6300
g18
F0.5
sg19
I99
sg20
g0
(g21
g22
(dp6301
I00
I95
sI01
I4
stp6302
Rp6303
(dp6304
g19
I99
sg27
Nsg28
Nsg29
Nsbsg30
I3
sg31
F100.5
sbs(g9
Vcontains(instead)
p6305
tp6306
g0
(g14
g2
Ntp6307
Rp6308
(dp6309
g18
F0.5
sg19
I71
sg20
g0
(g21
g22
(dp6310
I00
I71
stp6311
Rp6312
(dp6313
g19
I71
sg27
Nsg28
Nsg29
Nsbsg30
I3
sg31
F72.5
sbs(g8
Vcontains(his)
p6314
tp6315
g0
(g14
g2
Ntp6316
Rp6317
(dp6318
g18
F0.5
sg19
I99
sg20
g0
(g21
g22
(dp6319
I00
I97
sI01
I2
stp6320
Rp6321
(dp6322
g19
I99
sg27
Nsg28
Nsg29
Nsbsg30
I3
sg31
F100.5
sbs(g8
Vcontains(hang)
p6323
tp6324
g0
(g14
g2
Ntp6325
Rp6326
(dp6327
g18
F0.5
sg19
I99
sg20
g0
(g21
g22
(dp6328
I00
I98
sI01
I1
stp6329
Rp6330
(dp6331
g19
I99
sg27
Nsg28
Nsg29
Nsbsg30
I3
sg31
F100.5
sbs(g9
Vcontains(middle)
p6332
tp6333
g0
(g14
g2
Ntp6334
Rp6335
(dp6336
g18
F0.5
sg19
I71
sg20
g0
(g21
g22
(dp6337
I00
I70
sI01
I1
stp6338
Rp6339
(dp6340
g19
I71
sg27
Nsg28
Nsg29
Nsbsg30
I3
sg31
F72.5
sbs(g8
Vcontains(man)
p6341
tp6342
g0
(g14
g2
Ntp6343
Rp6344
(dp6345
g18
F0.5
sg19
I99
sg20
g0
(g21
g22
(dp6346
I00
I97
sI01
I2
stp6347
Rp6348
(dp6349
g19
I99
sg27
Nsg28
Nsg29
Nsbsg30
I3
sg31
F100.5
sbs(g9
Vcontains(lol)
p6350
tp6351
g0
(g14
g2
Ntp6352
Rp6353
(dp6354
g18
F0.5
sg19
I71
sg20
g0
(g21
g22
(dp6355
I00
I70
sI01
I1
stp6356
Rp6357
(dp6358
g19
I71
sg27
Nsg28
Nsg29
Nsbsg30
I3
sg31
F72.5
sbs(g9
Vcontains(oga)
p6359
tp6360
g0
(g14
g2
Ntp6361
Rp6362
(dp6363
g18
F0.5
sg19
I71
sg20
g0
(g21
g22
(dp6364
I00
I70
sI01
I1
stp6365
Rp6366
(dp6367
g19
I71
sg27
Nsg28
Nsg29
Nsbsg30
I3
sg31
F72.5
sbs(g8
Vcontains(office)
p6368
tp6369
g0
(g14
g2
Ntp6370
Rp6371
(dp6372
g18
F0.5
sg19
I99
sg20
g0
(g21
g22
(dp6373
I00
I99
stp6374
Rp6375
(dp6376
g19
I99
sg27
Nsg28
Nsg29
Nsbsg30
I3
sg31
F100.5
sbs(g9
Vcontains(cousin)
p6377
tp6378
g0
(g14
g2
Ntp6379
Rp6380
(dp6381
g18
F0.5
sg19
I71
sg20
g0
(g21
g22
(dp6382
I00
I70
sI01
I1
stp6383
Rp6384
(dp6385
g19
I71
sg27
Nsg28
Nsg29
Nsbsg30
I3
sg31
F72.5
sbs(g9
Vcontains(models)
p6386
tp6387
g0
(g14
g2
Ntp6388
Rp6389
(dp6390
g18
F0.5
sg19
I71
sg20
g0
(g21
g22
(dp6391
I00
I70
sI01
I1
stp6392
Rp6393
(dp6394
g19
I71
sg27
Nsg28
Nsg29
Nsbsg30
I3
sg31
F72.5
sbs(g9
Vcontains(solved)
p6395
tp6396
g0
(g14
g2
Ntp6397
Rp6398
(dp6399
g18
F0.5
sg19
I71
sg20
g0
(g21
g22
(dp6400
I00
I70
sI01
I1
stp6401
Rp6402
(dp6403
g19
I71
sg27
Nsg28
Nsg29
Nsbsg30
I3
sg31
F72.5
sbs(g8
Vcontains(green)
p6404
tp6405
g0
(g14
g2
Ntp6406
Rp6407
(dp6408
g18
F0.5
sg19
I99
sg20
g0
(g21
g22
(dp6409
I00
I97
sI01
I2
stp6410
Rp6411
(dp6412
g19
I99
sg27
Nsg28
Nsg29
Nsbsg30
I3
sg31
F100.5
sbs(g8
Vcontains(arsenal)
p6413
tp6414
g0
(g14
g2
Ntp6415
Rp6416
(dp6417
g18
F0.5
sg19
I99
sg20
g0
(g21
g22
(dp6418
I00
I99
stp6419
Rp6420
(dp6421
g19
I99
sg27
Nsg28
Nsg29
Nsbsg30
I3
sg31
F100.5
sbs(g9
Vcontains(lt)
p6422
tp6423
g0
(g14
g2
Ntp6424
Rp6425
(dp6426
g18
F0.5
sg19
I71
sg20
g0
(g21
g22
(dp6427
I00
I71
stp6428
Rp6429
(dp6430
g19
I71
sg27
Nsg28
Nsg29
Nsbsg30
I3
sg31
F72.5
sbs(g9
Vcontains(units)
p6431
tp6432
g0
(g14
g2
Ntp6433
Rp6434
(dp6435
g18
F0.5
sg19
I71
sg20
g0
(g21
g22
(dp6436
I00
I70
sI01
I1
stp6437
Rp6438
(dp6439
g19
I71
sg27
Nsg28
Nsg29
Nsbsg30
I3
sg31
F72.5
sbs(g9
Vcontains(soon)
p6440
tp6441
g0
(g14
g2
Ntp6442
Rp6443
(dp6444
g18
F0.5
sg19
I71
sg20
g0
(g21
g22
(dp6445
I00
I70
sI01
I1
stp6446
Rp6447
(dp6448
g19
I71
sg27
Nsg28
Nsg29
Nsbsg30
I3
sg31
F72.5
sbs(g8
Vcontains(article)
p6449
tp6450
g0
(g14
g2
Ntp6451
Rp6452
(dp6453
g18
F0.5
sg19
I99
sg20
g0
(g21
g22
(dp6454
I00
I99
stp6455
Rp6456
(dp6457
g19
I99
sg27
Nsg28
Nsg29
Nsbsg30
I3
sg31
F100.5
sbs(g9
Vcontains(indy)
p6458
tp6459
g0
(g14
g2
Ntp6460
Rp6461
(dp6462
g18
F0.5
sg19
I71
sg20
g0
(g21
g22
(dp6463
I00
I70
sI01
I1
stp6464
Rp6465
(dp6466
g19
I71
sg27
Nsg28
Nsg29
Nsbsg30
I3
sg31
F72.5
sbs(g8
Vcontains(safe)
p6467
tp6468
g0
(g14
g2
Ntp6469
Rp6470
(dp6471
g18
F0.5
sg19
I99
sg20
g0
(g21
g22
(dp6472
I00
I98
sI01
I1
stp6473
Rp6474
(dp6475
g19
I99
sg27
Nsg28
Nsg29
Nsbsg30
I3
sg31
F100.5
sbs(g8
Vcontains(news)
p6476
tp6477
g0
(g14
g2
Ntp6478
Rp6479
(dp6480
g18
F0.5
sg19
I99
sg20
g0
(g21
g22
(dp6481
I00
I98
sI01
I1
stp6482
Rp6483
(dp6484
g19
I99
sg27
Nsg28
Nsg29
Nsbsg30
I3
sg31
F100.5
sbs(g8
Vcontains(conway)
p6485
tp6486
g0
(g14
g2
Ntp6487
Rp6488
(dp6489
g18
F0.5
sg19
I99
sg20
g0
(g21
g22
(dp6490
I00
I99
stp6491
Rp6492
(dp6493
g19
I99
sg27
Nsg28
Nsg29
Nsbsg30
I3
sg31
F100.5
sbs(g9
Vcontains(pancakes)
p6494
tp6495
g0
(g14
g2
Ntp6496
Rp6497
(dp6498
g18
F0.5
sg19
I71
sg20
g0
(g21
g22
(dp6499
I00
I70
sI01
I1
stp6500
Rp6501
(dp6502
g19
I71
sg27
Nsg28
Nsg29
Nsbsg30
I3
sg31
F72.5
sbs(g8
Vcontains(lost)
p6503
tp6504
g0
(g14
g2
Ntp6505
Rp6506
(dp6507
g18
F0.5
sg19
I99
sg20
g0
(g21
g22
(dp6508
I00
I98
sI01
I1
stp6509
Rp6510
(dp6511
g19
I99
sg27
Nsg28
Nsg29
Nsbsg30
I3
sg31
F100.5
sbs(g8
Vcontains(finesse)
p6512
tp6513
g0
(g14
g2
Ntp6514
Rp6515
(dp6516
g18
F0.5
sg19
I99
sg20
g0
(g21
g22
(dp6517
I00
I99
stp6518
Rp6519
(dp6520
g19
I99
sg27
Nsg28
Nsg29
Nsbsg30
I3
sg31
F100.5
sbs(g8
Vcontains(ilovebeingafrican)
p6521
tp6522
g0
(g14
g2
Ntp6523
Rp6524
(dp6525
g18
F0.5
sg19
I99
sg20
g0
(g21
g22
(dp6526
I00
I98
sI01
I1
stp6527
Rp6528
(dp6529
g19
I99
sg27
Nsg28
Nsg29
Nsbsg30
I3
sg31
F100.5
sbs(g9
Vcontains(popular)
p6530
tp6531
g0
(g14
g2
Ntp6532
Rp6533
(dp6534
g18
F0.5
sg19
I71
sg20
g0
(g21
g22
(dp6535
I00
I71
stp6536
Rp6537
(dp6538
g19
I71
sg27
Nsg28
Nsg29
Nsbsg30
I3
sg31
F72.5
sbs(g8
Vcontains(watch)
p6539
tp6540
g0
(g14
g2
Ntp6541
Rp6542
(dp6543
g18
F0.5
sg19
I99
sg20
g0
(g21
g22
(dp6544
I00
I98
sI01
I1
stp6545
Rp6546
(dp6547
g19
I99
sg27
Nsg28
Nsg29
Nsbsg30
I3
sg31
F100.5
sbs(g8
Vcontains(cute)
p6548
tp6549
g0
(g14
g2
Ntp6550
Rp6551
(dp6552
g18
F0.5
sg19
I99
sg20
g0
(g21
g22
(dp6553
I00
I98
sI01
I1
stp6554
Rp6555
(dp6556
g19
I99
sg27
Nsg28
Nsg29
Nsbsg30
I3
sg31
F100.5
sbs(g9
Vcontains(he)
p6557
tp6558
g0
(g14
g2
Ntp6559
Rp6560
(dp6561
g18
F0.5
sg19
I71
sg20
g0
(g21
g22
(dp6562
I00
I71
stp6563
Rp6564
(dp6565
g19
I71
sg27
Nsg28
Nsg29
Nsbsg30
I3
sg31
F72.5
sbs(g9
Vcontains(wrote)
p6566
tp6567
g0
(g14
g2
Ntp6568
Rp6569
(dp6570
g18
F0.5
sg19
I71
sg20
g0
(g21
g22
(dp6571
I00
I71
stp6572
Rp6573
(dp6574
g19
I71
sg27
Nsg28
Nsg29
Nsbsg30
I3
sg31
F72.5
sbs(g9
Vcontains(oh)
p6575
tp6576
g0
(g14
g2
Ntp6577
Rp6578
(dp6579
g18
F0.5
sg19
I71
sg20
g0
(g21
g22
(dp6580
I00
I70
sI01
I1
stp6581
Rp6582
(dp6583
g19
I71
sg27
Nsg28
Nsg29
Nsbsg30
I3
sg31
F72.5
sbs(g8
Vcontains(increased)
p6584
tp6585
g0
(g14
g2
Ntp6586
Rp6587
(dp6588
g18
F0.5
sg19
I99
sg20
g0
(g21
g22
(dp6589
I00
I98
sI01
I1
stp6590
Rp6591
(dp6592
g19
I99
sg27
Nsg28
Nsg29
Nsbsg30
I3
sg31
F100.5
sbs(g8
Vcontains(official)
p6593
tp6594
g0
(g14
g2
Ntp6595
Rp6596
(dp6597
g18
F0.5
sg19
I99
sg20
g0
(g21
g22
(dp6598
I00
I97
sI01
I2
stp6599
Rp6600
(dp6601
g19
I99
sg27
Nsg28
Nsg29
Nsbsg30
I3
sg31
F100.5
sbs(g9
Vcontains(extreme)
p6602
tp6603
g0
(g14
g2
Ntp6604
Rp6605
(dp6606
g18
F0.5
sg19
I71
sg20
g0
(g21
g22
(dp6607
I00
I59
sI01
I12
stp6608
Rp6609
(dp6610
g19
I71
sg27
Nsg28
Nsg29
Nsbsg30
I3
sg31
F72.5
sbs(g8
Vcontains(bullying)
p6611
tp6612
g0
(g14
g2
Ntp6613
Rp6614
(dp6615
g18
F0.5
sg19
I99
sg20
g0
(g21
g22
(dp6616
I00
I99
stp6617
Rp6618
(dp6619
g19
I99
sg27
Nsg28
Nsg29
Nsbsg30
I3
sg31
F100.5
sbs(g8
Vcontains(sex)
p6620
tp6621
g0
(g14
g2
Ntp6622
Rp6623
(dp6624
g18
F0.5
sg19
I99
sg20
g0
(g21
g22
(dp6625
I00
I96
sI01
I3
stp6626
Rp6627
(dp6628
g19
I99
sg27
Nsg28
Nsg29
Nsbsg30
I3
sg31
F100.5
sbs(g8
Vcontains(name)
p6629
tp6630
g0
(g14
g2
Ntp6631
Rp6632
(dp6633
g18
F0.5
sg19
I99
sg20
g0
(g21
g22
(dp6634
I00
I97
sI01
I2
stp6635
Rp6636
(dp6637
g19
I99
sg27
Nsg28
Nsg29
Nsbsg30
I3
sg31
F100.5
sbs(g8
Vcontains(omg)
p6638
tp6639
g0
(g14
g2
Ntp6640
Rp6641
(dp6642
g18
F0.5
sg19
I99
sg20
g0
(g21
g22
(dp6643
I00
I98
sI01
I1
stp6644
Rp6645
(dp6646
g19
I99
sg27
Nsg28
Nsg29
Nsbsg30
I3
sg31
F100.5
sbs(g8
Vcontains(set)
p6647
tp6648
g0
(g14
g2
Ntp6649
Rp6650
(dp6651
g18
F0.5
sg19
I99
sg20
g0
(g21
g22
(dp6652
I00
I97
sI01
I2
stp6653
Rp6654
(dp6655
g19
I99
sg27
Nsg28
Nsg29
Nsbsg30
I3
sg31
F100.5
sbs(g8
Vcontains(cr)
p6656
tp6657
g0
(g14
g2
Ntp6658
Rp6659
(dp6660
g18
F0.5
sg19
I99
sg20
g0
(g21
g22
(dp6661
I00
I98
sI01
I1
stp6662
Rp6663
(dp6664
g19
I99
sg27
Nsg28
Nsg29
Nsbsg30
I3
sg31
F100.5
sbs(g9
Vcontains(ethics)
p6665
tp6666
g0
(g14
g2
Ntp6667
Rp6668
(dp6669
g18
F0.5
sg19
I71
sg20
g0
(g21
g22
(dp6670
I00
I70
sI01
I1
stp6671
Rp6672
(dp6673
g19
I71
sg27
Nsg28
Nsg29
Nsbsg30
I3
sg31
F72.5
sbs(g8
Vcontains(log)
p6674
tp6675
g0
(g14
g2
Ntp6676
Rp6677
(dp6678
g18
F0.5
sg19
I99
sg20
g0
(g21
g22
(dp6679
I00
I98
sI01
I1
stp6680
Rp6681
(dp6682
g19
I99
sg27
Nsg28
Nsg29
Nsbsg30
I3
sg31
F100.5
sbs(g9
Vcontains(ultimate)
p6683
tp6684
g0
(g14
g2
Ntp6685
Rp6686
(dp6687
g18
F0.5
sg19
I71
sg20
g0
(g21
g22
(dp6688
I00
I70
sI01
I1
stp6689
Rp6690
(dp6691
g19
I71
sg27
Nsg28
Nsg29
Nsbsg30
I3
sg31
F72.5
sbs(g9
Vcontains(living)
p6692
tp6693
g0
(g14
g2
Ntp6694
Rp6695
(dp6696
g18
F0.5
sg19
I71
sg20
g0
(g21
g22
(dp6697
I00
I70
sI01
I1
stp6698
Rp6699
(dp6700
g19
I71
sg27
Nsg28
Nsg29
Nsbsg30
I3
sg31
F72.5
sbs(g9
Vcontains(bla)
p6701
tp6702
g0
(g14
g2
Ntp6703
Rp6704
(dp6705
g18
F0.5
sg19
I71
sg20
g0
(g21
g22
(dp6706
I00
I69
sI01
I2
stp6707
Rp6708
(dp6709
g19
I71
sg27
Nsg28
Nsg29
Nsbsg30
I3
sg31
F72.5
sbs(g8
Vcontains(president)
p6710
tp6711
g0
(g14
g2
Ntp6712
Rp6713
(dp6714
g18
F0.5
sg19
I99
sg20
g0
(g21
g22
(dp6715
I00
I99
stp6716
Rp6717
(dp6718
g19
I99
sg27
Nsg28
Nsg29
Nsbsg30
I3
sg31
F100.5
sbs(g8
Vcontains(dick)
p6719
tp6720
g0
(g14
g2
Ntp6721
Rp6722
(dp6723
g18
F0.5
sg19
I99
sg20
g0
(g21
g22
(dp6724
I00
I97
sI01
I2
stp6725
Rp6726
(dp6727
g19
I99
sg27
Nsg28
Nsg29
Nsbsg30
I3
sg31
F100.5
sbs(g9
Vcontains(tablets)
p6728
tp6729
g0
(g14
g2
Ntp6730
Rp6731
(dp6732
g18
F0.5
sg19
I71
sg20
g0
(g21
g22
(dp6733
I00
I70
sI01
I1
stp6734
Rp6735
(dp6736
g19
I71
sg27
Nsg28
Nsg29
Nsbsg30
I3
sg31
F72.5
sbs(g9
Vcontains(likes)
p6737
tp6738
g0
(g14
g2
Ntp6739
Rp6740
(dp6741
g18
F0.5
sg19
I71
sg20
g0
(g21
g22
(dp6742
I00
I70
sI01
I1
stp6743
Rp6744
(dp6745
g19
I71
sg27
Nsg28
Nsg29
Nsbsg30
I3
sg31
F72.5
sbs(g9
Vcontains(kyun)
p6746
tp6747
g0
(g14
g2
Ntp6748
Rp6749
(dp6750
g18
F0.5
sg19
I71
sg20
g0
(g21
g22
(dp6751
I00
I71
stp6752
Rp6753
(dp6754
g19
I71
sg27
Nsg28
Nsg29
Nsbsg30
I3
sg31
F72.5
sbs(g8
Vcontains(using)
p6755
tp6756
g0
(g14
g2
Ntp6757
Rp6758
(dp6759
g18
F0.5
sg19
I99
sg20
g0
(g21
g22
(dp6760
I00
I99
stp6761
Rp6762
(dp6763
g19
I99
sg27
Nsg28
Nsg29
Nsbsg30
I3
sg31
F100.5
sbs(g9
Vcontains(familiar)
p6764
tp6765
g0
(g14
g2
Ntp6766
Rp6767
(dp6768
g18
F0.5
sg19
I71
sg20
g0
(g21
g22
(dp6769
I00
I71
stp6770
Rp6771
(dp6772
g19
I71
sg27
Nsg28
Nsg29
Nsbsg30
I3
sg31
F72.5
sbs(g9
Vcontains(fun)
p6773
tp6774
g0
(g14
g2
Ntp6775
Rp6776
(dp6777
g18
F0.5
sg19
I71
sg20
g0
(g21
g22
(dp6778
I00
I70
sI01
I1
stp6779
Rp6780
(dp6781
g19
I71
sg27
Nsg28
Nsg29
Nsbsg30
I3
sg31
F72.5
sbs(g9
Vcontains(her)
p6782
tp6783
g0
(g14
g2
Ntp6784
Rp6785
(dp6786
g18
F0.5
sg19
I71
sg20
g0
(g21
g22
(dp6787
I00
I71
stp6788
Rp6789
(dp6790
g19
I71
sg27
Nsg28
Nsg29
Nsbsg30
I3
sg31
F72.5
sbs(g9
Vcontains(listen)
p6791
tp6792
g0
(g14
g2
Ntp6793
Rp6794
(dp6795
g18
F0.5
sg19
I71
sg20
g0
(g21
g22
(dp6796
I00
I70
sI01
I1
stp6797
Rp6798
(dp6799
g19
I71
sg27
Nsg28
Nsg29
Nsbsg30
I3
sg31
F72.5
sbs(g8
Vcontains(resort)
p6800
tp6801
g0
(g14
g2
Ntp6802
Rp6803
(dp6804
g18
F0.5
sg19
I99
sg20
g0
(g21
g22
(dp6805
I00
I74
sI01
I25
stp6806
Rp6807
(dp6808
g19
I99
sg27
Nsg28
Nsg29
Nsbsg30
I3
sg31
F100.5
sbs(g8
Vcontains(khoya)
p6809
tp6810
g0
(g14
g2
Ntp6811
Rp6812
(dp6813
g18
F0.5
sg19
I99
sg20
g0
(g21
g22
(dp6814
I00
I99
stp6815
Rp6816
(dp6817
g19
I99
sg27
Nsg28
Nsg29
Nsbsg30
I3
sg31
F100.5
sbs(g8
Vcontains(definitely)
p6818
tp6819
g0
(g14
g2
Ntp6820
Rp6821
(dp6822
g18
F0.5
sg19
I99
sg20
g0
(g21
g22
(dp6823
I00
I99
stp6824
Rp6825
(dp6826
g19
I99
sg27
Nsg28
Nsg29
Nsbsg30
I3
sg31
F100.5
sbs(g8
Vcontains(research)
p6827
tp6828
g0
(g14
g2
Ntp6829
Rp6830
(dp6831
g18
F0.5
sg19
I99
sg20
g0
(g21
g22
(dp6832
I00
I99
stp6833
Rp6834
(dp6835
g19
I99
sg27
Nsg28
Nsg29
Nsbsg30
I3
sg31
F100.5
sbs(g9
Vcontains(hay)
p6836
tp6837
g0
(g14
g2
Ntp6838
Rp6839
(dp6840
g18
F0.5
sg19
I71
sg20
g0
(g21
g22
(dp6841
I00
I70
sI01
I1
stp6842
Rp6843
(dp6844
g19
I71
sg27
Nsg28
Nsg29
Nsbsg30
I3
sg31
F72.5
sbs(g9
Vcontains(line)
p6845
tp6846
g0
(g14
g2
Ntp6847
Rp6848
(dp6849
g18
F0.5
sg19
I71
sg20
g0
(g21
g22
(dp6850
I00
I71
stp6851
Rp6852
(dp6853
g19
I71
sg27
Nsg28
Nsg29
Nsbsg30
I3
sg31
F72.5
sbs(g9
Vcontains(firdaus)
p6854
tp6855
g0
(g14
g2
Ntp6856
Rp6857
(dp6858
g18
F0.5
sg19
I71
sg20
g0
(g21
g22
(dp6859
I00
I71
stp6860
Rp6861
(dp6862
g19
I71
sg27
Nsg28
Nsg29
Nsbsg30
I3
sg31
F72.5
sbs(g9
Vcontains(bay)
p6863
tp6864
g0
(g14
g2
Ntp6865
Rp6866
(dp6867
g18
F0.5
sg19
I71
sg20
g0
(g21
g22
(dp6868
I00
I70
sI01
I1
stp6869
Rp6870
(dp6871
g19
I71
sg27
Nsg28
Nsg29
Nsbsg30
I3
sg31
F72.5
sbs(g8
Vcontains(msm)
p6872
tp6873
g0
(g14
g2
Ntp6874
Rp6875
(dp6876
g18
F0.5
sg19
I99
sg20
g0
(g21
g22
(dp6877
I00
I98
sI01
I1
stp6878
Rp6879
(dp6880
g19
I99
sg27
Nsg28
Nsg29
Nsbsg30
I3
sg31
F100.5
sbs(g8
Vcontains(bears)
p6881
tp6882
g0
(g14
g2
Ntp6883
Rp6884
(dp6885
g18
F0.5
sg19
I99
sg20
g0
(g21
g22
(dp6886
I00
I98
sI01
I1
stp6887
Rp6888
(dp6889
g19
I99
sg27
Nsg28
Nsg29
Nsbsg30
I3
sg31
F100.5
sbs(g9
Vcontains(shoot)
p6890
tp6891
g0
(g14
g2
Ntp6892
Rp6893
(dp6894
g18
F0.5
sg19
I71
sg20
g0
(g21
g22
(dp6895
I00
I71
stp6896
Rp6897
(dp6898
g19
I71
sg27
Nsg28
Nsg29
Nsbsg30
I3
sg31
F72.5
sbs(g8
Vcontains(wander)
p6899
tp6900
g0
(g14
g2
Ntp6901
Rp6902
(dp6903
g18
F0.5
sg19
I99
sg20
g0
(g21
g22
(dp6904
I00
I99
stp6905
Rp6906
(dp6907
g19
I99
sg27
Nsg28
Nsg29
Nsbsg30
I3
sg31
F100.5
sbs(g9
Vcontains(maga)
p6908
tp6909
g0
(g14
g2
Ntp6910
Rp6911
(dp6912
g18
F0.5
sg19
I71
sg20
g0
(g21
g22
(dp6913
I00
I70
sI01
I1
stp6914
Rp6915
(dp6916
g19
I71
sg27
Nsg28
Nsg29
Nsbsg30
I3
sg31
F72.5
sbs(g8
Vcontains(hours)
p6917
tp6918
g0
(g14
g2
Ntp6919
Rp6920
(dp6921
g18
F0.5
sg19
I99
sg20
g0
(g21
g22
(dp6922
I00
I97
sI01
I2
stp6923
Rp6924
(dp6925
g19
I99
sg27
Nsg28
Nsg29
Nsbsg30
I3
sg31
F100.5
sbs(g8
Vcontains(virgin)
p6926
tp6927
g0
(g14
g2
Ntp6928
Rp6929
(dp6930
g18
F0.5
sg19
I99
sg20
g0
(g21
g22
(dp6931
I00
I98
sI01
I1
stp6932
Rp6933
(dp6934
g19
I99
sg27
Nsg28
Nsg29
Nsbsg30
I3
sg31
F100.5
sbs(g9
Vcontains(private)
p6935
tp6936
g0
(g14
g2
Ntp6937
Rp6938
(dp6939
g18
F0.5
sg19
I71
sg20
g0
(g21
g22
(dp6940
I00
I70
sI01
I1
stp6941
Rp6942
(dp6943
g19
I71
sg27
Nsg28
Nsg29
Nsbsg30
I3
sg31
F72.5
sbs(g8
Vcontains(bmcresults)
p6944
tp6945
g0
(g14
g2
Ntp6946
Rp6947
(dp6948
g18
F0.5
sg19
I99
sg20
g0
(g21
g22
(dp6949
I00
I99
stp6950
Rp6951
(dp6952
g19
I99
sg27
Nsg28
Nsg29
Nsbsg30
I3
sg31
F100.5
sbs(g9
Vcontains(na)
p6953
tp6954
g0
(g14
g2
Ntp6955
Rp6956
(dp6957
g18
F0.5
sg19
I71
sg20
g0
(g21
g22
(dp6958
I00
I70
sI01
I1
stp6959
Rp6960
(dp6961
g19
I71
sg27
Nsg28
Nsg29
Nsbsg30
I3
sg31
F72.5
sbs(g8
Vcontains(promote)
p6962
tp6963
g0
(g14
g2
Ntp6964
Rp6965
(dp6966
g18
F0.5
sg19
I99
sg20
g0
(g21
g22
(dp6967
I00
I98
sI01
I1
stp6968
Rp6969
(dp6970
g19
I99
sg27
Nsg28
Nsg29
Nsbsg30
I3
sg31
F100.5
sbs(g8
Vcontains(mo)
p6971
tp6972
g0
(g14
g2
Ntp6973
Rp6974
(dp6975
g18
F0.5
sg19
I99
sg20
g0
(g21
g22
(dp6976
I00
I98
sI01
I1
stp6977
Rp6978
(dp6979
g19
I99
sg27
Nsg28
Nsg29
Nsbsg30
I3
sg31
F100.5
sbs(g8
Vcontains(covenanti)
p6980
tp6981
g0
(g14
g2
Ntp6982
Rp6983
(dp6984
g18
F0.5
sg19
I99
sg20
g0
(g21
g22
(dp6985
I00
I99
stp6986
Rp6987
(dp6988
g19
I99
sg27
Nsg28
Nsg29
Nsbsg30
I3
sg31
F100.5
sbs(g9
Vcontains(copying)
p6989
tp6990
g0
(g14
g2
Ntp6991
Rp6992
(dp6993
g18
F0.5
sg19
I71
sg20
g0
(g21
g22
(dp6994
I00
I71
stp6995
Rp6996
(dp6997
g19
I71
sg27
Nsg28
Nsg29
Nsbsg30
I3
sg31
F72.5
sbs(g8
Vcontains(rap)
p6998
tp6999
g0
(g14
g2
Ntp7000
Rp7001
(dp7002
g18
F0.5
sg19
I99
sg20
g0
(g21
g22
(dp7003
I00
I97
sI01
I2
stp7004
Rp7005
(dp7006
g19
I99
sg27
Nsg28
Nsg29
Nsbsg30
I3
sg31
F100.5
sbs(g9
Vcontains(newsroom)
p7007
tp7008
g0
(g14
g2
Ntp7009
Rp7010
(dp7011
g18
F0.5
sg19
I71
sg20
g0
(g21
g22
(dp7012
I00
I70
sI01
I1
stp7013
Rp7014
(dp7015
g19
I71
sg27
Nsg28
Nsg29
Nsbsg30
I3
sg31
F72.5
sbs(g9
Vcontains(believes)
p7016
tp7017
g0
(g14
g2
Ntp7018
Rp7019
(dp7020
g18
F0.5
sg19
I71
sg20
g0
(g21
g22
(dp7021
I00
I71
stp7022
Rp7023
(dp7024
g19
I71
sg27
Nsg28
Nsg29
Nsbsg30
I3
sg31
F72.5
sbs(g9
Vcontains(trendd)
p7025
tp7026
g0
(g14
g2
Ntp7027
Rp7028
(dp7029
g18
F0.5
sg19
I71
sg20
g0
(g21
g22
(dp7030
I00
I71
stp7031
Rp7032
(dp7033
g19
I71
sg27
Nsg28
Nsg29
Nsbsg30
I3
sg31
F72.5
sbs(g8
Vcontains(tendency)
p7034
tp7035
g0
(g14
g2
Ntp7036
Rp7037
(dp7038
g18
F0.5
sg19
I99
sg20
g0
(g21
g22
(dp7039
I00
I99
stp7040
Rp7041
(dp7042
g19
I99
sg27
Nsg28
Nsg29
Nsbsg30
I3
sg31
F100.5
sbs(g8
Vcontains(rant)
p7043
tp7044
g0
(g14
g2
Ntp7045
Rp7046
(dp7047
g18
F0.5
sg19
I99
sg20
g0
(g21
g22
(dp7048
I00
I98
sI01
I1
stp7049
Rp7050
(dp7051
g19
I99
sg27
Nsg28
Nsg29
Nsbsg30
I3
sg31
F100.5
sbs(g8
Vcontains(dripped)
p7052
tp7053
g0
(g14
g2
Ntp7054
Rp7055
(dp7056
g18
F0.5
sg19
I99
sg20
g0
(g21
g22
(dp7057
I00
I99
stp7058
Rp7059
(dp7060
g19
I99
sg27
Nsg28
Nsg29
Nsbsg30
I3
sg31
F100.5
sbs(g8
Vcontains(tomor)
p7061
tp7062
g0
(g14
g2
Ntp7063
Rp7064
(dp7065
g18
F0.5
sg19
I99
sg20
g0
(g21
g22
(dp7066
I00
I99
stp7067
Rp7068
(dp7069
g19
I99
sg27
Nsg28
Nsg29
Nsbsg30
I3
sg31
F100.5
sbs(g9
Vcontains(weekend)
p7070
tp7071
g0
(g14
g2
Ntp7072
Rp7073
(dp7074
g18
F0.5
sg19
I71
sg20
g0
(g21
g22
(dp7075
I00
I70
sI01
I1
stp7076
Rp7077
(dp7078
g19
I71
sg27
Nsg28
Nsg29
Nsbsg30
I3
sg31
F72.5
sbs(g9
Vcontains(choose)
p7079
tp7080
g0
(g14
g2
Ntp7081
Rp7082
(dp7083
g18
F0.5
sg19
I71
sg20
g0
(g21
g22
(dp7084
I00
I71
stp7085
Rp7086
(dp7087
g19
I71
sg27
Nsg28
Nsg29
Nsbsg30
I3
sg31
F72.5
sbs(g9
Vcontains(died)
p7088
tp7089
g0
(g14
g2
Ntp7090
Rp7091
(dp7092
g18
F0.5
sg19
I71
sg20
g0
(g21
g22
(dp7093
I00
I71
stp7094
Rp7095
(dp7096
g19
I71
sg27
Nsg28
Nsg29
Nsbsg30
I3
sg31
F72.5
sbs(g8
Vcontains(believes)
p7097
tp7098
g0
(g14
g2
Ntp7099
Rp7100
(dp7101
g18
F0.5
sg19
I99
sg20
g0
(g21
g22
(dp7102
I00
I97
sI01
I2
stp7103
Rp7104
(dp7105
g19
I99
sg27
Nsg28
Nsg29
Nsbsg30
I3
sg31
F100.5
sbs(g9
Vcontains(future)
p7106
tp7107
g0
(g14
g2
Ntp7108
Rp7109
(dp7110
g18
F0.5
sg19
I71
sg20
g0
(g21
g22
(dp7111
I00
I70
sI01
I1
stp7112
Rp7113
(dp7114
g19
I71
sg27
Nsg28
Nsg29
Nsbsg30
I3
sg31
F72.5
sbs(g9
Vcontains(se)
p7115
tp7116
g0
(g14
g2
Ntp7117
Rp7118
(dp7119
g18
F0.5
sg19
I71
sg20
g0
(g21
g22
(dp7120
I00
I71
stp7121
Rp7122
(dp7123
g19
I71
sg27
Nsg28
Nsg29
Nsbsg30
I3
sg31
F72.5
sbs(g8
Vcontains(lol)
p7124
tp7125
g0
(g14
g2
Ntp7126
Rp7127
(dp7128
g18
F0.5
sg19
I99
sg20
g0
(g21
g22
(dp7129
I00
I98
sI01
I1
stp7130
Rp7131
(dp7132
g19
I99
sg27
Nsg28
Nsg29
Nsbsg30
I3
sg31
F100.5
sbs(g9
Vcontains(gaining)
p7133
tp7134
g0
(g14
g2
Ntp7135
Rp7136
(dp7137
g18
F0.5
sg19
I71
sg20
g0
(g21
g22
(dp7138
I00
I70
sI01
I1
stp7139
Rp7140
(dp7141
g19
I71
sg27
Nsg28
Nsg29
Nsbsg30
I3
sg31
F72.5
sbs(g9
Vcontains(si)
p7142
tp7143
g0
(g14
g2
Ntp7144
Rp7145
(dp7146
g18
F0.5
sg19
I71
sg20
g0
(g21
g22
(dp7147
I00
I71
stp7148
Rp7149
(dp7150
g19
I71
sg27
Nsg28
Nsg29
Nsbsg30
I3
sg31
F72.5
sbs(g8
Vcontains(gonna)
p7151
tp7152
g0
(g14
g2
Ntp7153
Rp7154
(dp7155
g18
F0.5
sg19
I99
sg20
g0
(g21
g22
(dp7156
I00
I98
sI01
I1
stp7157
Rp7158
(dp7159
g19
I99
sg27
Nsg28
Nsg29
Nsbsg30
I3
sg31
F100.5
sbs(g8
Vcontains(hope)
p7160
tp7161
g0
(g14
g2
Ntp7162
Rp7163
(dp7164
g18
F0.5
sg19
I99
sg20
g0
(g21
g22
(dp7165
I00
I99
stp7166
Rp7167
(dp7168
g19
I99
sg27
Nsg28
Nsg29
Nsbsg30
I3
sg31
F100.5
sbs(g9
Vcontains(wanna)
p7169
tp7170
g0
(g14
g2
Ntp7171
Rp7172
(dp7173
g18
F0.5
sg19
I71
sg20
g0
(g21
g22
(dp7174
I00
I71
stp7175
Rp7176
(dp7177
g19
I71
sg27
Nsg28
Nsg29
Nsbsg30
I3
sg31
F72.5
sbs(g9
Vcontains(pruitt)
p7178
tp7179
g0
(g14
g2
Ntp7180
Rp7181
(dp7182
g18
F0.5
sg19
I71
sg20
g0
(g21
g22
(dp7183
I00
I71
stp7184
Rp7185
(dp7186
g19
I71
sg27
Nsg28
Nsg29
Nsbsg30
I3
sg31
F72.5
sbs(g9
Vcontains(child)
p7187
tp7188
g0
(g14
g2
Ntp7189
Rp7190
(dp7191
g18
F0.5
sg19
I71
sg20
g0
(g21
g22
(dp7192
I00
I70
sI01
I1
stp7193
Rp7194
(dp7195
g19
I71
sg27
Nsg28
Nsg29
Nsbsg30
I3
sg31
F72.5
sbs(g9
Vcontains(sharpton)
p7196
tp7197
g0
(g14
g2
Ntp7198
Rp7199
(dp7200
g18
F0.5
sg19
I71
sg20
g0
(g21
g22
(dp7201
I00
I70
sI01
I1
stp7202
Rp7203
(dp7204
g19
I71
sg27
Nsg28
Nsg29
Nsbsg30
I3
sg31
F72.5
sbs(g8
Vcontains(tweet)
p7205
tp7206
g0
(g14
g2
Ntp7207
Rp7208
(dp7209
g18
F0.5
sg19
I99
sg20
g0
(g21
g22
(dp7210
I00
I98
sI01
I1
stp7211
Rp7212
(dp7213
g19
I99
sg27
Nsg28
Nsg29
Nsbsg30
I3
sg31
F100.5
sbs(g8
Vcontains(cousin)
p7214
tp7215
g0
(g14
g2
Ntp7216
Rp7217
(dp7218
g18
F0.5
sg19
I99
sg20
g0
(g21
g22
(dp7219
I00
I99
stp7220
Rp7221
(dp7222
g19
I99
sg27
Nsg28
Nsg29
Nsbsg30
I3
sg31
F100.5
sbs(g8
Vcontains(lake)
p7223
tp7224
g0
(g14
g2
Ntp7225
Rp7226
(dp7227
g18
F0.5
sg19
I99
sg20
g0
(g21
g22
(dp7228
I00
I99
stp7229
Rp7230
(dp7231
g19
I99
sg27
Nsg28
Nsg29
Nsbsg30
I3
sg31
F100.5
sbs(g9
Vcontains(prompto)
p7232
tp7233
g0
(g14
g2
Ntp7234
Rp7235
(dp7236
g18
F0.5
sg19
I71
sg20
g0
(g21
g22
(dp7237
I00
I71
stp7238
Rp7239
(dp7240
g19
I71
sg27
Nsg28
Nsg29
Nsbsg30
I3
sg31
F72.5
sbs(g9
Vcontains(lover)
p7241
tp7242
g0
(g14
g2
Ntp7243
Rp7244
(dp7245
g18
F0.5
sg19
I71
sg20
g0
(g21
g22
(dp7246
I00
I71
stp7247
Rp7248
(dp7249
g19
I71
sg27
Nsg28
Nsg29
Nsbsg30
I3
sg31
F72.5
sbs(g9
Vcontains(act)
p7250
tp7251
g0
(g14
g2
Ntp7252
Rp7253
(dp7254
g18
F0.5
sg19
I71
sg20
g0
(g21
g22
(dp7255
I00
I70
sI01
I1
stp7256
Rp7257
(dp7258
g19
I71
sg27
Nsg28
Nsg29
Nsbsg30
I3
sg31
F72.5
sbs(g9
Vcontains(poor)
p7259
tp7260
g0
(g14
g2
Ntp7261
Rp7262
(dp7263
g18
F0.5
sg19
I71
sg20
g0
(g21
g22
(dp7264
I00
I69
sI01
I2
stp7265
Rp7266
(dp7267
g19
I71
sg27
Nsg28
Nsg29
Nsbsg30
I3
sg31
F72.5
sbs(g8
Vcontains(chennai)
p7268
tp7269
g0
(g14
g2
Ntp7270
Rp7271
(dp7272
g18
F0.5
sg19
I99
sg20
g0
(g21
g22
(dp7273
I00
I99
stp7274
Rp7275
(dp7276
g19
I99
sg27
Nsg28
Nsg29
Nsbsg30
I3
sg31
F100.5
sbs(g9
Vcontains(aisq8)
p7277
tp7278
g0
(g14
g2
Ntp7279
Rp7280
(dp7281
g18
F0.5
sg19
I71
sg20
g0
(g21
g22
(dp7282
I00
I71
stp7283
Rp7284
(dp7285
g19
I71
sg27
Nsg28
Nsg29
Nsbsg30
I3
sg31
F72.5
sbs(g9
Vcontains(hundreds)
p7286
tp7287
g0
(g14
g2
Ntp7288
Rp7289
(dp7290
g18
F0.5
sg19
I71
sg20
g0
(g21
g22
(dp7291
I00
I70
sI01
I1
stp7292
Rp7293
(dp7294
g19
I71
sg27
Nsg28
Nsg29
Nsbsg30
I3
sg31
F72.5
sbs(g8
Vcontains(balochistan)
p7295
tp7296
g0
(g14
g2
Ntp7297
Rp7298
(dp7299
g18
F0.5
sg19
I99
sg20
g0
(g21
g22
(dp7300
I00
I99
stp7301
Rp7302
(dp7303
g19
I99
sg27
Nsg28
Nsg29
Nsbsg30
I3
sg31
F100.5
sbs(g8
Vcontains(contact)
p7304
tp7305
g0
(g14
g2
Ntp7306
Rp7307
(dp7308
g18
F0.5
sg19
I99
sg20
g0
(g21
g22
(dp7309
I00
I99
stp7310
Rp7311
(dp7312
g19
I99
sg27
Nsg28
Nsg29
Nsbsg30
I3
sg31
F100.5
sbs(g8
Vcontains(photo)
p7313
tp7314
g0
(g14
g2
Ntp7315
Rp7316
(dp7317
g18
F0.5
sg19
I99
sg20
g0
(g21
g22
(dp7318
I00
I98
sI01
I1
stp7319
Rp7320
(dp7321
g19
I99
sg27
Nsg28
Nsg29
Nsbsg30
I3
sg31
F100.5
sbs(g9
Vcontains(ymi)
p7322
tp7323
g0
(g14
g2
Ntp7324
Rp7325
(dp7326
g18
F0.5
sg19
I71
sg20
g0
(g21
g22
(dp7327
I00
I70
sI01
I1
stp7328
Rp7329
(dp7330
g19
I71
sg27
Nsg28
Nsg29
Nsbsg30
I3
sg31
F72.5
sbs(g9
Vcontains(gauri)
p7331
tp7332
g0
(g14
g2
Ntp7333
Rp7334
(dp7335
g18
F0.5
sg19
I71
sg20
g0
(g21
g22
(dp7336
I00
I71
stp7337
Rp7338
(dp7339
g19
I71
sg27
Nsg28
Nsg29
Nsbsg30
I3
sg31
F72.5
sbs(g8
Vcontains(kaha)
p7340
tp7341
g0
(g14
g2
Ntp7342
Rp7343
(dp7344
g18
F0.5
sg19
I99
sg20
g0
(g21
g22
(dp7345
I00
I98
sI01
I1
stp7346
Rp7347
(dp7348
g19
I99
sg27
Nsg28
Nsg29
Nsbsg30
I3
sg31
F100.5
sbs(g8
Vcontains(hot)
p7349
tp7350
g0
(g14
g2
Ntp7351
Rp7352
(dp7353
g18
F0.5
sg19
I99
sg20
g0
(g21
g22
(dp7354
I00
I98
sI01
I1
stp7355
Rp7356
(dp7357
g19
I99
sg27
Nsg28
Nsg29
Nsbsg30
I3
sg31
F100.5
sbs(g9
Vcontains(girls)
p7358
tp7359
g0
(g14
g2
Ntp7360
Rp7361
(dp7362
g18
F0.5
sg19
I71
sg20
g0
(g21
g22
(dp7363
I00
I71
stp7364
Rp7365
(dp7366
g19
I71
sg27
Nsg28
Nsg29
Nsbsg30
I3
sg31
F72.5
sbs(g9
Vcontains(jagah)
p7367
tp7368
g0
(g14
g2
Ntp7369
Rp7370
(dp7371
g18
F0.5
sg19
I71
sg20
g0
(g21
g22
(dp7372
I00
I71
stp7373
Rp7374
(dp7375
g19
I71
sg27
Nsg28
Nsg29
Nsbsg30
I3
sg31
F72.5
sbs(g8
Vcontains(hazrat)
p7376
tp7377
g0
(g14
g2
Ntp7378
Rp7379
(dp7380
g18
F0.5
sg19
I99
sg20
g0
(g21
g22
(dp7381
I00
I98
sI01
I1
stp7382
Rp7383
(dp7384
g19
I99
sg27
Nsg28
Nsg29
Nsbsg30
I3
sg31
F100.5
sbs(g8
Vcontains(pink)
p7385
tp7386
g0
(g14
g2
Ntp7387
Rp7388
(dp7389
g18
F0.5
sg19
I99
sg20
g0
(g21
g22
(dp7390
I00
I98
sI01
I1
stp7391
Rp7392
(dp7393
g19
I99
sg27
Nsg28
Nsg29
Nsbsg30
I3
sg31
F100.5
sbs(g8
Vcontains(followers)
p7394
tp7395
g0
(g14
g2
Ntp7396
Rp7397
(dp7398
g18
F0.5
sg19
I99
sg20
g0
(g21
g22
(dp7399
I00
I99
stp7400
Rp7401
(dp7402
g19
I99
sg27
Nsg28
Nsg29
Nsbsg30
I3
sg31
F100.5
sbs(g8
Vcontains(noctis)
p7403
tp7404
g0
(g14
g2
Ntp7405
Rp7406
(dp7407
g18
F0.5
sg19
I99
sg20
g0
(g21
g22
(dp7408
I00
I98
sI01
I1
stp7409
Rp7410
(dp7411
g19
I99
sg27
Nsg28
Nsg29
Nsbsg30
I3
sg31
F100.5
sbs(g9
Vcontains(nd)
p7412
tp7413
g0
(g14
g2
Ntp7414
Rp7415
(dp7416
g18
F0.5
sg19
I71
sg20
g0
(g21
g22
(dp7417
I00
I70
sI01
I1
stp7418
Rp7419
(dp7420
g19
I71
sg27
Nsg28
Nsg29
Nsbsg30
I3
sg31
F72.5
sbs(g9
Vcontains(results)
p7421
tp7422
g0
(g14
g2
Ntp7423
Rp7424
(dp7425
g18
F0.5
sg19
I71
sg20
g0
(g21
g22
(dp7426
I00
I70
sI01
I1
stp7427
Rp7428
(dp7429
g19
I71
sg27
Nsg28
Nsg29
Nsbsg30
I3
sg31
F72.5
sbs(g9
Vcontains(mominaat)
p7430
tp7431
g0
(g14
g2
Ntp7432
Rp7433
(dp7434
g18
F0.5
sg19
I71
sg20
g0
(g21
g22
(dp7435
I00
I71
stp7436
Rp7437
(dp7438
g19
I71
sg27
Nsg28
Nsg29
Nsbsg30
I3
sg31
F72.5
sbs(g9
Vcontains(left)
p7439
tp7440
g0
(g14
g2
Ntp7441
Rp7442
(dp7443
g18
F0.5
sg19
I71
sg20
g0
(g21
g22
(dp7444
I00
I71
stp7445
Rp7446
(dp7447
g19
I71
sg27
Nsg28
Nsg29
Nsbsg30
I3
sg31
F72.5
sbs(g9
Vcontains(twinkhim)
p7448
tp7449
g0
(g14
g2
Ntp7450
Rp7451
(dp7452
g18
F0.5
sg19
I71
sg20
g0
(g21
g22
(dp7453
I00
I70
sI01
I1
stp7454
Rp7455
(dp7456
g19
I71
sg27
Nsg28
Nsg29
Nsbsg30
I3
sg31
F72.5
sbs(g8
Vcontains(person)
p7457
tp7458
g0
(g14
g2
Ntp7459
Rp7460
(dp7461
g18
F0.5
sg19
I99
sg20
g0
(g21
g22
(dp7462
I00
I99
stp7463
Rp7464
(dp7465
g19
I99
sg27
Nsg28
Nsg29
Nsbsg30
I3
sg31
F100.5
sbs(g9
Vcontains(gain)
p7466
tp7467
g0
(g14
g2
Ntp7468
Rp7469
(dp7470
g18
F0.5
sg19
I71
sg20
g0
(g21
g22
(dp7471
I00
I70
sI01
I1
stp7472
Rp7473
(dp7474
g19
I71
sg27
Nsg28
Nsg29
Nsbsg30
I3
sg31
F72.5
sbs(g8
Vcontains(momineen)
p7475
tp7476
g0
(g14
g2
Ntp7477
Rp7478
(dp7479
g18
F0.5
sg19
I99
sg20
g0
(g21
g22
(dp7480
I00
I98
sI01
I1
stp7481
Rp7482
(dp7483
g19
I99
sg27
Nsg28
Nsg29
Nsbsg30
I3
sg31
F100.5
sbs(g9
Vcontains(sexy)
p7484
tp7485
g0
(g14
g2
Ntp7486
Rp7487
(dp7488
g18
F0.5
sg19
I71
sg20
g0
(g21
g22
(dp7489
I00
I71
stp7490
Rp7491
(dp7492
g19
I71
sg27
Nsg28
Nsg29
Nsbsg30
I3
sg31
F72.5
sbs(g8
Vcontains(blast)
p7493
tp7494
g0
(g14
g2
Ntp7495
Rp7496
(dp7497
g18
F0.5
sg19
I99
sg20
g0
(g21
g22
(dp7498
I00
I99
stp7499
Rp7500
(dp7501
g19
I99
sg27
Nsg28
Nsg29
Nsbsg30
I3
sg31
F100.5
sbs(g8
Vcontains(clean)
p7502
tp7503
g0
(g14
g2
Ntp7504
Rp7505
(dp7506
g18
F0.5
sg19
I99
sg20
g0
(g21
g22
(dp7507
I00
I99
stp7508
Rp7509
(dp7510
g19
I99
sg27
Nsg28
Nsg29
Nsbsg30
I3
sg31
F100.5
sbs(g9
Vcontains(blue)
p7511
tp7512
g0
(g14
g2
Ntp7513
Rp7514
(dp7515
g18
F0.5
sg19
I71
sg20
g0
(g21
g22
(dp7516
I00
I71
stp7517
Rp7518
(dp7519
g19
I71
sg27
Nsg28
Nsg29
Nsbsg30
I3
sg31
F72.5
sbs(g9
Vcontains(negative)
p7520
tp7521
g0
(g14
g2
Ntp7522
Rp7523
(dp7524
g18
F0.5
sg19
I71
sg20
g0
(g21
g22
(dp7525
I00
I70
sI01
I1
stp7526
Rp7527
(dp7528
g19
I71
sg27
Nsg28
Nsg29
Nsbsg30
I3
sg31
F72.5
sbs(g8
Vcontains(remember)
p7529
tp7530
g0
(g14
g2
Ntp7531
Rp7532
(dp7533
g18
F0.5
sg19
I99
sg20
g0
(g21
g22
(dp7534
I00
I99
stp7535
Rp7536
(dp7537
g19
I99
sg27
Nsg28
Nsg29
Nsbsg30
I3
sg31
F100.5
sbs(g8
Vcontains(retweeted)
p7538
tp7539
g0
(g14
g2
Ntp7540
Rp7541
(dp7542
g18
F0.5
sg19
I99
sg20
g0
(g21
g22
(dp7543
I00
I98
sI01
I1
stp7544
Rp7545
(dp7546
g19
I99
sg27
Nsg28
Nsg29
Nsbsg30
I3
sg31
F100.5
sbs(g9
Vcontains(cnn)
p7547
tp7548
g0
(g14
g2
Ntp7549
Rp7550
(dp7551
g18
F0.5
sg19
I71
sg20
g0
(g21
g22
(dp7552
I00
I69
sI01
I2
stp7553
Rp7554
(dp7555
g19
I71
sg27
Nsg28
Nsg29
Nsbsg30
I3
sg31
F72.5
sbs(g8
Vcontains(jus)
p7556
tp7557
g0
(g14
g2
Ntp7558
Rp7559
(dp7560
g18
F0.5
sg19
I99
sg20
g0
(g21
g22
(dp7561
I00
I99
stp7562
Rp7563
(dp7564
g19
I99
sg27
Nsg28
Nsg29
Nsbsg30
I3
sg31
F100.5
sbs(g9
Vcontains(waits)
p7565
tp7566
g0
(g14
g2
Ntp7567
Rp7568
(dp7569
g18
F0.5
sg19
I71
sg20
g0
(g21
g22
(dp7570
I00
I71
stp7571
Rp7572
(dp7573
g19
I71
sg27
Nsg28
Nsg29
Nsbsg30
I3
sg31
F72.5
sbs(g9
Vcontains(honored)
p7574
tp7575
g0
(g14
g2
Ntp7576
Rp7577
(dp7578
g18
F0.5
sg19
I71
sg20
g0
(g21
g22
(dp7579
I00
I71
stp7580
Rp7581
(dp7582
g19
I71
sg27
Nsg28
Nsg29
Nsbsg30
I3
sg31
F72.5
sbs(g9
Vcontains(lmaoo)
p7583
tp7584
g0
(g14
g2
Ntp7585
Rp7586
(dp7587
g18
F0.5
sg19
I71
sg20
g0
(g21
g22
(dp7588
I00
I71
stp7589
Rp7590
(dp7591
g19
I71
sg27
Nsg28
Nsg29
Nsbsg30
I3
sg31
F72.5
sbs(g9
Vcontains(finally)
p7592
tp7593
g0
(g14
g2
Ntp7594
Rp7595
(dp7596
g18
F0.5
sg19
I71
sg20
g0
(g21
g22
(dp7597
I00
I69
sI01
I2
stp7598
Rp7599
(dp7600
g19
I71
sg27
Nsg28
Nsg29
Nsbsg30
I3
sg31
F72.5
sbs(g9
Vcontains(boys)
p7601
tp7602
g0
(g14
g2
Ntp7603
Rp7604
(dp7605
g18
F0.5
sg19
I71
sg20
g0
(g21
g22
(dp7606
I00
I71
stp7607
Rp7608
(dp7609
g19
I71
sg27
Nsg28
Nsg29
Nsbsg30
I3
sg31
F72.5
sbs(g8
Vcontains(created)
p7610
tp7611
g0
(g14
g2
Ntp7612
Rp7613
(dp7614
g18
F0.5
sg19
I99
sg20
g0
(g21
g22
(dp7615
I00
I98
sI01
I1
stp7616
Rp7617
(dp7618
g19
I99
sg27
Nsg28
Nsg29
Nsbsg30
I3
sg31
F100.5
sbs(g8
Vcontains(nd)
p7619
tp7620
g0
(g14
g2
Ntp7621
Rp7622
(dp7623
g18
F0.5
sg19
I99
sg20
g0
(g21
g22
(dp7624
I00
I99
stp7625
Rp7626
(dp7627
g19
I99
sg27
Nsg28
Nsg29
Nsbsg30
I3
sg31
F100.5
sbs(g9
Vcontains(dance)
p7628
tp7629
g0
(g14
g2
Ntp7630
Rp7631
(dp7632
g18
F0.5
sg19
I71
sg20
g0
(g21
g22
(dp7633
I00
I71
stp7634
Rp7635
(dp7636
g19
I71
sg27
Nsg28
Nsg29
Nsbsg30
I3
sg31
F72.5
sbs(g9
Vcontains(caloor)
p7637
tp7638
g0
(g14
g2
Ntp7639
Rp7640
(dp7641
g18
F0.5
sg19
I71
sg20
g0
(g21
g22
(dp7642
I00
I70
sI01
I1
stp7643
Rp7644
(dp7645
g19
I71
sg27
Nsg28
Nsg29
Nsbsg30
I3
sg31
F72.5
sbs(g9
Vcontains(mate)
p7646
tp7647
g0
(g14
g2
Ntp7648
Rp7649
(dp7650
g18
F0.5
sg19
I71
sg20
g0
(g21
g22
(dp7651
I00
I70
sI01
I1
stp7652
Rp7653
(dp7654
g19
I71
sg27
Nsg28
Nsg29
Nsbsg30
I3
sg31
F72.5
sbs(g9
Vcontains(scrap)
p7655
tp7656
g0
(g14
g2
Ntp7657
Rp7658
(dp7659
g18
F0.5
sg19
I71
sg20
g0
(g21
g22
(dp7660
I00
I70
sI01
I1
stp7661
Rp7662
(dp7663
g19
I71
sg27
Nsg28
Nsg29
Nsbsg30
I3
sg31
F72.5
sbs(g8
Vcontains(detecting)
p7664
tp7665
g0
(g14
g2
Ntp7666
Rp7667
(dp7668
g18
F0.5
sg19
I99
sg20
g0
(g21
g22
(dp7669
I00
I99
stp7670
Rp7671
(dp7672
g19
I99
sg27
Nsg28
Nsg29
Nsbsg30
I3
sg31
F100.5
sbs(g9
Vcontains(him)
p7673
tp7674
g0
(g14
g2
Ntp7675
Rp7676
(dp7677
g18
F0.5
sg19
I71
sg20
g0
(g21
g22
(dp7678
I00
I71
stp7679
Rp7680
(dp7681
g19
I71
sg27
Nsg28
Nsg29
Nsbsg30
I3
sg31
F72.5
sbs(g8
Vcontains(team)
p7682
tp7683
g0
(g14
g2
Ntp7684
Rp7685
(dp7686
g18
F0.5
sg19
I99
sg20
g0
(g21
g22
(dp7687
I00
I97
sI01
I2
stp7688
Rp7689
(dp7690
g19
I99
sg27
Nsg28
Nsg29
Nsbsg30
I3
sg31
F100.5
sbs(g9
Vcontains(statement)
p7691
tp7692
g0
(g14
g2
Ntp7693
Rp7694
(dp7695
g18
F0.5
sg19
I71
sg20
g0
(g21
g22
(dp7696
I00
I71
stp7697
Rp7698
(dp7699
g19
I71
sg27
Nsg28
Nsg29
Nsbsg30
I3
sg31
F72.5
sbs(g8
Vcontains(collapsed)
p7700
tp7701
g0
(g14
g2
Ntp7702
Rp7703
(dp7704
g18
F0.5
sg19
I99
sg20
g0
(g21
g22
(dp7705
I00
I99
stp7706
Rp7707
(dp7708
g19
I99
sg27
Nsg28
Nsg29
Nsbsg30
I3
sg31
F100.5
sbs(g9
Vcontains(increase)
p7709
tp7710
g0
(g14
g2
Ntp7711
Rp7712
(dp7713
g18
F0.5
sg19
I71
sg20
g0
(g21
g22
(dp7714
I00
I71
stp7715
Rp7716
(dp7717
g19
I71
sg27
Nsg28
Nsg29
Nsbsg30
I3
sg31
F72.5
sbs(g8
Vcontains(apart)
p7718
tp7719
g0
(g14
g2
Ntp7720
Rp7721
(dp7722
g18
F0.5
sg19
I99
sg20
g0
(g21
g22
(dp7723
I00
I98
sI01
I1
stp7724
Rp7725
(dp7726
g19
I99
sg27
Nsg28
Nsg29
Nsbsg30
I3
sg31
F100.5
sbs(g9
Vcontains(dear)
p7727
tp7728
g0
(g14
g2
Ntp7729
Rp7730
(dp7731
g18
F0.5
sg19
I71
sg20
g0
(g21
g22
(dp7732
I00
I71
stp7733
Rp7734
(dp7735
g19
I71
sg27
Nsg28
Nsg29
Nsbsg30
I3
sg31
F72.5
sbs(g9
Vcontains(jungkook)
p7736
tp7737
g0
(g14
g2
Ntp7738
Rp7739
(dp7740
g18
F0.5
sg19
I71
sg20
g0
(g21
g22
(dp7741
I00
I71
stp7742
Rp7743
(dp7744
g19
I71
sg27
Nsg28
Nsg29
Nsbsg30
I3
sg31
F72.5
sbs(g9
Vcontains(council)
p7745
tp7746
g0
(g14
g2
Ntp7747
Rp7748
(dp7749
g18
F0.5
sg19
I71
sg20
g0
(g21
g22
(dp7750
I00
I70
sI01
I1
stp7751
Rp7752
(dp7753
g19
I71
sg27
Nsg28
Nsg29
Nsbsg30
I3
sg31
F72.5
sbs(g9
Vcontains(allowing)
p7754
tp7755
g0
(g14
g2
Ntp7756
Rp7757
(dp7758
g18
F0.5
sg19
I71
sg20
g0
(g21
g22
(dp7759
I00
I70
sI01
I1
stp7760
Rp7761
(dp7762
g19
I71
sg27
Nsg28
Nsg29
Nsbsg30
I3
sg31
F72.5
sbs(g9
Vcontains(brands)
p7763
tp7764
g0
(g14
g2
Ntp7765
Rp7766
(dp7767
g18
F0.5
sg19
I71
sg20
g0
(g21
g22
(dp7768
I00
I70
sI01
I1
stp7769
Rp7770
(dp7771
g19
I71
sg27
Nsg28
Nsg29
Nsbsg30
I3
sg31
F72.5
sbs(g9
Vcontains(annoying)
p7772
tp7773
g0
(g14
g2
Ntp7774
Rp7775
(dp7776
g18
F0.5
sg19
I71
sg20
g0
(g21
g22
(dp7777
I00
I70
sI01
I1
stp7778
Rp7779
(dp7780
g19
I71
sg27
Nsg28
Nsg29
Nsbsg30
I3
sg31
F72.5
sbs(g9
Vcontains(beat)
p7781
tp7782
g0
(g14
g2
Ntp7783
Rp7784
(dp7785
g18
F0.5
sg19
I71
sg20
g0
(g21
g22
(dp7786
I00
I71
stp7787
Rp7788
(dp7789
g19
I71
sg27
Nsg28
Nsg29
Nsbsg30
I3
sg31
F72.5
sbs(g9
Vcontains(maybe)
p7790
tp7791
g0
(g14
g2
Ntp7792
Rp7793
(dp7794
g18
F0.5
sg19
I71
sg20
g0
(g21
g22
(dp7795
I00
I70
sI01
I1
stp7796
Rp7797
(dp7798
g19
I71
sg27
Nsg28
Nsg29
Nsbsg30
I3
sg31
F72.5
sbs(g9
Vcontains(siya)
p7799
tp7800
g0
(g14
g2
Ntp7801
Rp7802
(dp7803
g18
F0.5
sg19
I71
sg20
g0
(g21
g22
(dp7804
I00
I71
stp7805
Rp7806
(dp7807
g19
I71
sg27
Nsg28
Nsg29
Nsbsg30
I3
sg31
F72.5
sbs(g9
Vcontains(prove)
p7808
tp7809
g0
(g14
g2
Ntp7810
Rp7811
(dp7812
g18
F0.5
sg19
I71
sg20
g0
(g21
g22
(dp7813
I00
I69
sI01
I2
stp7814
Rp7815
(dp7816
g19
I71
sg27
Nsg28
Nsg29
Nsbsg30
I3
sg31
F72.5
sbs(g9
Vcontains(solid)
p7817
tp7818
g0
(g14
g2
Ntp7819
Rp7820
(dp7821
g18
F0.5
sg19
I71
sg20
g0
(g21
g22
(dp7822
I00
I71
stp7823
Rp7824
(dp7825
g19
I71
sg27
Nsg28
Nsg29
Nsbsg30
I3
sg31
F72.5
sbs(g9
Vcontains(days)
p7826
tp7827
g0
(g14
g2
Ntp7828
Rp7829
(dp7830
g18
F0.5
sg19
I71
sg20
g0
(g21
g22
(dp7831
I00
I71
stp7832
Rp7833
(dp7834
g19
I71
sg27
Nsg28
Nsg29
Nsbsg30
I3
sg31
F72.5
sbs(g8
Vcontains(writing)
p7835
tp7836
g0
(g14
g2
Ntp7837
Rp7838
(dp7839
g18
F0.5
sg19
I99
sg20
g0
(g21
g22
(dp7840
I00
I98
sI01
I1
stp7841
Rp7842
(dp7843
g19
I99
sg27
Nsg28
Nsg29
Nsbsg30
I3
sg31
F100.5
sbs(g8
Vcontains(footage)
p7844
tp7845
g0
(g14
g2
Ntp7846
Rp7847
(dp7848
g18
F0.5
sg19
I99
sg20
g0
(g21
g22
(dp7849
I00
I97
sI01
I2
stp7850
Rp7851
(dp7852
g19
I99
sg27
Nsg28
Nsg29
Nsbsg30
I3
sg31
F100.5
sbs(g8
Vcontains(bird)
p7853
tp7854
g0
(g14
g2
Ntp7855
Rp7856
(dp7857
g18
F0.5
sg19
I99
sg20
g0
(g21
g22
(dp7858
I00
I98
sI01
I1
stp7859
Rp7860
(dp7861
g19
I99
sg27
Nsg28
Nsg29
Nsbsg30
I3
sg31
F100.5
sbs(g8
Vcontains(real)
p7862
tp7863
g0
(g14
g2
Ntp7864
Rp7865
(dp7866
g18
F0.5
sg19
I99
sg20
g0
(g21
g22
(dp7867
I00
I99
stp7868
Rp7869
(dp7870
g19
I99
sg27
Nsg28
Nsg29
Nsbsg30
I3
sg31
F100.5
sbs(g9
Vcontains(story)
p7871
tp7872
g0
(g14
g2
Ntp7873
Rp7874
(dp7875
g18
F0.5
sg19
I71
sg20
g0
(g21
g22
(dp7876
I00
I70
sI01
I1
stp7877
Rp7878
(dp7879
g19
I71
sg27
Nsg28
Nsg29
Nsbsg30
I3
sg31
F72.5
sbs(g9
Vcontains(posted)
p7880
tp7881
g0
(g14
g2
Ntp7882
Rp7883
(dp7884
g18
F0.5
sg19
I71
sg20
g0
(g21
g22
(dp7885
I00
I71
stp7886
Rp7887
(dp7888
g19
I71
sg27
Nsg28
Nsg29
Nsbsg30
I3
sg31
F72.5
sbs(g9
Vcontains(subhanallah)
p7889
tp7890
g0
(g14
g2
Ntp7891
Rp7892
(dp7893
g18
F0.5
sg19
I71
sg20
g0
(g21
g22
(dp7894
I00
I71
stp7895
Rp7896
(dp7897
g19
I71
sg27
Nsg28
Nsg29
Nsbsg30
I3
sg31
F72.5
sbs(g9
Vcontains(doing)
p7898
tp7899
g0
(g14
g2
Ntp7900
Rp7901
(dp7902
g18
F0.5
sg19
I71
sg20
g0
(g21
g22
(dp7903
I00
I71
stp7904
Rp7905
(dp7906
g19
I71
sg27
Nsg28
Nsg29
Nsbsg30
I3
sg31
F72.5
sbs(g8
Vcontains(painting)
p7907
tp7908
g0
(g14
g2
Ntp7909
Rp7910
(dp7911
g18
F0.5
sg19
I99
sg20
g0
(g21
g22
(dp7912
I00
I98
sI01
I1
stp7913
Rp7914
(dp7915
g19
I99
sg27
Nsg28
Nsg29
Nsbsg30
I3
sg31
F100.5
sbs(g9
Vcontains(porn8)
p7916
tp7917
g0
(g14
g2
Ntp7918
Rp7919
(dp7920
g18
F0.5
sg19
I71
sg20
g0
(g21
g22
(dp7921
I00
I71
stp7922
Rp7923
(dp7924
g19
I71
sg27
Nsg28
Nsg29
Nsbsg30
I3
sg31
F72.5
sbs(g9
Vcontains(charms)
p7925
tp7926
g0
(g14
g2
Ntp7927
Rp7928
(dp7929
g18
F0.5
sg19
I71
sg20
g0
(g21
g22
(dp7930
I00
I71
stp7931
Rp7932
(dp7933
g19
I71
sg27
Nsg28
Nsg29
Nsbsg30
I3
sg31
F72.5
sbs(g8
Vcontains(instagram)
p7934
tp7935
g0
(g14
g2
Ntp7936
Rp7937
(dp7938
g18
F0.5
sg19
I99
sg20
g0
(g21
g22
(dp7939
I00
I99
stp7940
Rp7941
(dp7942
g19
I99
sg27
Nsg28
Nsg29
Nsbsg30
I3
sg31
F100.5
sbs(g8
Vcontains(living)
p7943
tp7944
g0
(g14
g2
Ntp7945
Rp7946
(dp7947
g18
F0.5
sg19
I99
sg20
g0
(g21
g22
(dp7948
I00
I99
stp7949
Rp7950
(dp7951
g19
I99
sg27
Nsg28
Nsg29
Nsbsg30
I3
sg31
F100.5
sbs(g9
Vcontains(marry)
p7952
tp7953
g0
(g14
g2
Ntp7954
Rp7955
(dp7956
g18
F0.5
sg19
I71
sg20
g0
(g21
g22
(dp7957
I00
I71
stp7958
Rp7959
(dp7960
g19
I71
sg27
Nsg28
Nsg29
Nsbsg30
I3
sg31
F72.5
sbs(g8
Vcontains(al)
p7961
tp7962
g0
(g14
g2
Ntp7963
Rp7964
(dp7965
g18
F0.5
sg19
I99
sg20
g0
(g21
g22
(dp7966
I00
I99
stp7967
Rp7968
(dp7969
g19
I99
sg27
Nsg28
Nsg29
Nsbsg30
I3
sg31
F100.5
sbs(g9
Vcontains(wan)
p7970
tp7971
g0
(g14
g2
Ntp7972
Rp7973
(dp7974
g18
F0.5
sg19
I71
sg20
g0
(g21
g22
(dp7975
I00
I71
stp7976
Rp7977
(dp7978
g19
I71
sg27
Nsg28
Nsg29
Nsbsg30
I3
sg31
F72.5
sbs(g8
Vcontains(miss)
p7979
tp7980
g0
(g14
g2
Ntp7981
Rp7982
(dp7983
g18
F0.5
sg19
I99
sg20
g0
(g21
g22
(dp7984
I00
I99
stp7985
Rp7986
(dp7987
g19
I99
sg27
Nsg28
Nsg29
Nsbsg30
I3
sg31
F100.5
sbs(g9
Vcontains(agree)
p7988
tp7989
g0
(g14
g2
Ntp7990
Rp7991
(dp7992
g18
F0.5
sg19
I71
sg20
g0
(g21
g22
(dp7993
I00
I71
stp7994
Rp7995
(dp7996
g19
I71
sg27
Nsg28
Nsg29
Nsbsg30
I3
sg31
F72.5
sbs(g9
Vcontains(energy)
p7997
tp7998
g0
(g14
g2
Ntp7999
Rp8000
(dp8001
g18
F0.5
sg19
I71
sg20
g0
(g21
g22
(dp8002
I00
I71
stp8003
Rp8004
(dp8005
g19
I71
sg27
Nsg28
Nsg29
Nsbsg30
I3
sg31
F72.5
sbs(g8
Vcontains(please)
p8006
tp8007
g0
(g14
g2
Ntp8008
Rp8009
(dp8010
g18
F0.5
sg19
I99
sg20
g0
(g21
g22
(dp8011
I00
I96
sI01
I3
stp8012
Rp8013
(dp8014
g19
I99
sg27
Nsg28
Nsg29
Nsbsg30
I3
sg31
F100.5
sbs(g8
Vcontains(taught)
p8015
tp8016
g0
(g14
g2
Ntp8017
Rp8018
(dp8019
g18
F0.5
sg19
I99
sg20
g0
(g21
g22
(dp8020
I00
I98
sI01
I1
stp8021
Rp8022
(dp8023
g19
I99
sg27
Nsg28
Nsg29
Nsbsg30
I3
sg31
F100.5
sbs(g9
Vcontains(lifeatcapgemini)
p8024
tp8025
g0
(g14
g2
Ntp8026
Rp8027
(dp8028
g18
F0.5
sg19
I71
sg20
g0
(g21
g22
(dp8029
I00
I71
stp8030
Rp8031
(dp8032
g19
I71
sg27
Nsg28
Nsg29
Nsbsg30
I3
sg31
F72.5
sbs(g8
Vcontains(twitter)
p8033
tp8034
g0
(g14
g2
Ntp8035
Rp8036
(dp8037
g18
F0.5
sg19
I99
sg20
g0
(g21
g22
(dp8038
I00
I99
stp8039
Rp8040
(dp8041
g19
I99
sg27
Nsg28
Nsg29
Nsbsg30
I3
sg31
F100.5
sbs(g8
Vcontains(longing)
p8042
tp8043
g0
(g14
g2
Ntp8044
Rp8045
(dp8046
g18
F0.5
sg19
I99
sg20
g0
(g21
g22
(dp8047
I00
I98
sI01
I1
stp8048
Rp8049
(dp8050
g19
I99
sg27
Nsg28
Nsg29
Nsbsg30
I3
sg31
F100.5
sbs(g8
Vcontains(sab)
p8051
tp8052
g0
(g14
g2
Ntp8053
Rp8054
(dp8055
g18
F0.5
sg19
I99
sg20
g0
(g21
g22
(dp8056
I00
I98
sI01
I1
stp8057
Rp8058
(dp8059
g19
I99
sg27
Nsg28
Nsg29
Nsbsg30
I3
sg31
F100.5
sbs(g8
Vcontains(tempting)
p8060
tp8061
g0
(g14
g2
Ntp8062
Rp8063
(dp8064
g18
F0.5
sg19
I99
sg20
g0
(g21
g22
(dp8065
I00
I74
sI01
I25
stp8066
Rp8067
(dp8068
g19
I99
sg27
Nsg28
Nsg29
Nsbsg30
I3
sg31
F100.5
sbs(g8
Vcontains(eve)
p8069
tp8070
g0
(g14
g2
Ntp8071
Rp8072
(dp8073
g18
F0.5
sg19
I99
sg20
g0
(g21
g22
(dp8074
I00
I98
sI01
I1
stp8075
Rp8076
(dp8077
g19
I99
sg27
Nsg28
Nsg29
Nsbsg30
I3
sg31
F100.5
sbs(g9
Vcontains(notice)
p8078
tp8079
g0
(g14
g2
Ntp8080
Rp8081
(dp8082
g18
F0.5
sg19
I71
sg20
g0
(g21
g22
(dp8083
I00
I70
sI01
I1
stp8084
Rp8085
(dp8086
g19
I71
sg27
Nsg28
Nsg29
Nsbsg30
I3
sg31
F72.5
sbs(g9
Vcontains(bob)
p8087
tp8088
g0
(g14
g2
Ntp8089
Rp8090
(dp8091
g18
F0.5
sg19
I71
sg20
g0
(g21
g22
(dp8092
I00
I70
sI01
I1
stp8093
Rp8094
(dp8095
g19
I71
sg27
Nsg28
Nsg29
Nsbsg30
I3
sg31
F72.5
sbs(g9
Vcontains(millions)
p8096
tp8097
g0
(g14
g2
Ntp8098
Rp8099
(dp8100
g18
F0.5
sg19
I71
sg20
g0
(g21
g22
(dp8101
I00
I70
sI01
I1
stp8102
Rp8103
(dp8104
g19
I71
sg27
Nsg28
Nsg29
Nsbsg30
I3
sg31
F72.5
sbs(g8
Vcontains(stop)
p8105
tp8106
g0
(g14
g2
Ntp8107
Rp8108
(dp8109
g18
F0.5
sg19
I99
sg20
g0
(g21
g22
(dp8110
I00
I97
sI01
I2
stp8111
Rp8112
(dp8113
g19
I99
sg27
Nsg28
Nsg29
Nsbsg30
I3
sg31
F100.5
sbs(g9
Vcontains(awesome)
p8114
tp8115
g0
(g14
g2
Ntp8116
Rp8117
(dp8118
g18
F0.5
sg19
I71
sg20
g0
(g21
g22
(dp8119
I00
I71
stp8120
Rp8121
(dp8122
g19
I71
sg27
Nsg28
Nsg29
Nsbsg30
I3
sg31
F72.5
sbs(g9
Vcontains(white)
p8123
tp8124
g0
(g14
g2
Ntp8125
Rp8126
(dp8127
g18
F0.5
sg19
I71
sg20
g0
(g21
g22
(dp8128
I00
I71
stp8129
Rp8130
(dp8131
g19
I71
sg27
Nsg28
Nsg29
Nsbsg30
I3
sg31
F72.5
sbs(g9
Vcontains(angels)
p8132
tp8133
g0
(g14
g2
Ntp8134
Rp8135
(dp8136
g18
F0.5
sg19
I71
sg20
g0
(g21
g22
(dp8137
I00
I71
stp8138
Rp8139
(dp8140
g19
I71
sg27
Nsg28
Nsg29
Nsbsg30
I3
sg31
F72.5
sbs(g9
Vcontains(entire)
p8141
tp8142
g0
(g14
g2
Ntp8143
Rp8144
(dp8145
g18
F0.5
sg19
I71
sg20
g0
(g21
g22
(dp8146
I00
I69
sI01
I2
stp8147
Rp8148
(dp8149
g19
I71
sg27
Nsg28
Nsg29
Nsbsg30
I3
sg31
F72.5
sbs(g8
Vcontains(smile)
p8150
tp8151
g0
(g14
g2
Ntp8152
Rp8153
(dp8154
g18
F0.5
sg19
I99
sg20
g0
(g21
g22
(dp8155
I00
I98
sI01
I1
stp8156
Rp8157
(dp8158
g19
I99
sg27
Nsg28
Nsg29
Nsbsg30
I3
sg31
F100.5
sbs(g8
Vcontains(lion)
p8159
tp8160
g0
(g14
g2
Ntp8161
Rp8162
(dp8163
g18
F0.5
sg19
I99
sg20
g0
(g21
g22
(dp8164
I00
I99
stp8165
Rp8166
(dp8167
g19
I99
sg27
Nsg28
Nsg29
Nsbsg30
I3
sg31
F100.5
sbs(g9
Vcontains(unless)
p8168
tp8169
g0
(g14
g2
Ntp8170
Rp8171
(dp8172
g18
F0.5
sg19
I71
sg20
g0
(g21
g22
(dp8173
I00
I70
sI01
I1
stp8174
Rp8175
(dp8176
g19
I71
sg27
Nsg28
Nsg29
Nsbsg30
I3
sg31
F72.5
sbs(g8
Vcontains(ripped)
p8177
tp8178
g0
(g14
g2
Ntp8179
Rp8180
(dp8181
g18
F0.5
sg19
I99
sg20
g0
(g21
g22
(dp8182
I00
I98
sI01
I1
stp8183
Rp8184
(dp8185
g19
I99
sg27
Nsg28
Nsg29
Nsbsg30
I3
sg31
F100.5
sbs(g9
Vcontains(leyk)
p8186
tp8187
g0
(g14
g2
Ntp8188
Rp8189
(dp8190
g18
F0.5
sg19
I71
sg20
g0
(g21
g22
(dp8191
I00
I71
stp8192
Rp8193
(dp8194
g19
I71
sg27
Nsg28
Nsg29
Nsbsg30
I3
sg31
F72.5
sbs(g8
Vcontains(pole)
p8195
tp8196
g0
(g14
g2
Ntp8197
Rp8198
(dp8199
g18
F0.5
sg19
I99
sg20
g0
(g21
g22
(dp8200
I00
I98
sI01
I1
stp8201
Rp8202
(dp8203
g19
I99
sg27
Nsg28
Nsg29
Nsbsg30
I3
sg31
F100.5
sbs(g8
Vcontains(megan)
p8204
tp8205
g0
(g14
g2
Ntp8206
Rp8207
(dp8208
g18
F0.5
sg19
I99
sg20
g0
(g21
g22
(dp8209
I00
I98
sI01
I1
stp8210
Rp8211
(dp8212
g19
I99
sg27
Nsg28
Nsg29
Nsbsg30
I3
sg31
F100.5
sbs(g8
Vcontains(pier)
p8213
tp8214
g0
(g14
g2
Ntp8215
Rp8216
(dp8217
g18
F0.5
sg19
I99
sg20
g0
(g21
g22
(dp8218
I00
I99
stp8219
Rp8220
(dp8221
g19
I99
sg27
Nsg28
Nsg29
Nsbsg30
I3
sg31
F100.5
sbs(g9
Vcontains(bigolive)
p8222
tp8223
g0
(g14
g2
Ntp8224
Rp8225
(dp8226
g18
F0.5
sg19
I71
sg20
g0
(g21
g22
(dp8227
I00
I71
stp8228
Rp8229
(dp8230
g19
I71
sg27
Nsg28
Nsg29
Nsbsg30
I3
sg31
F72.5
sbssS'_label_probdist'
p8231
g0
(g14
g2
Ntp8232
Rp8233
(dp8234
g18
F0.5
sg19
I170
sg20
g0
(g21
g22
(dp8235
g9
I71
sg8
I99
stp8236
Rp8237
(dp8238
g19
I170
sg27
Nsg28
(lp8239
(g8
I99
tp8240
a(g9
I71
tp8241
asg29
Nsbsg30
I2
sg31
F171.0
sbsb.